	.section	__TEXT,__text,regular,pure_instructions
	.build_version macos, 26, 0	sdk_version 26, 1
	.section	__TEXT,__literal16,16byte_literals
	.p2align	4, 0x0                          ; -- Begin function _ZN10playground15try_concurrencyEv
lCPI0_0:
	.quad	256                             ; 0x100
	.quad	0                               ; 0x0
	.section	__TEXT,__text,regular,pure_instructions
	.globl	__ZN10playground15try_concurrencyEv
	.p2align	2
__ZN10playground15try_concurrencyEv:    ; @_ZN10playground15try_concurrencyEv
Lfunc_begin0:
	.cfi_startproc
	.cfi_personality 155, ___gxx_personality_v0
	.cfi_lsda 16, Lexception0
; %bb.0:
	stp	x24, x23, [sp, #-64]!           ; 16-byte Folded Spill
	stp	x22, x21, [sp, #16]             ; 16-byte Folded Spill
	stp	x20, x19, [sp, #32]             ; 16-byte Folded Spill
	stp	x29, x30, [sp, #48]             ; 16-byte Folded Spill
	add	x29, sp, #48
	sub	sp, sp, #480
	.cfi_def_cfa w29, 16
	.cfi_offset w30, -8
	.cfi_offset w29, -16
	.cfi_offset w19, -24
	.cfi_offset w20, -32
	.cfi_offset w21, -40
	.cfi_offset w22, -48
	.cfi_offset w23, -56
	.cfi_offset w24, -64
Lloh0:
	adrp	x8, ___stack_chk_guard@GOTPAGE
Lloh1:
	ldr	x8, [x8, ___stack_chk_guard@GOTPAGEOFF]
Lloh2:
	ldr	x8, [x8]
	stur	x8, [x29, #-56]
	mov	w0, #8                          ; =0x8
	bl	__Znwm
	mov	x20, x0
Ltmp0:
	bl	__ZNSt3__115__thread_structC1Ev
Ltmp1:
; %bb.1:
	str	x20, [sp, #168]
Ltmp3:
	mov	w0, #16                         ; =0x10
	bl	__Znwm
Ltmp4:
; %bb.2:
	mov	x3, x0
	str	xzr, [sp, #168]
Lloh3:
	adrp	x8, l_.str@PAGE
Lloh4:
	add	x8, x8, l_.str@PAGEOFF
	stp	x20, x8, [x0]
	str	x0, [sp, #128]
Ltmp6:
Lloh5:
	adrp	x2, __ZNSt3__114__thread_proxyB8ne200100INS_5tupleIJNS_10unique_ptrINS_15__thread_structENS_14default_deleteIS3_EEEEZN10playground15try_concurrencyEvE3$_0PKcEEEEEPvSC_@PAGE
Lloh6:
	add	x2, x2, __ZNSt3__114__thread_proxyB8ne200100INS_5tupleIJNS_10unique_ptrINS_15__thread_structENS_14default_deleteIS3_EEEEZN10playground15try_concurrencyEvE3$_0PKcEEEEEPvSC_@PAGEOFF
	add	x0, sp, #88
	mov	x1, #0                          ; =0x0
	bl	_pthread_create
Ltmp7:
; %bb.3:
	cbnz	w0, LBB0_72
; %bb.4:
	ldr	x8, [sp, #88]
	stp	xzr, x8, [sp, #88]
	add	x0, sp, #88
	bl	__ZNSt3__16threadD1Ev
	stp	xzr, xzr, [sp, #64]
	str	xzr, [sp, #80]
	add	x8, sp, #64
	str	x8, [sp, #168]
	strb	wzr, [sp, #176]
Ltmp11:
	mov	w0, #144                        ; =0x90
	bl	__Znwm
Ltmp12:
; %bb.5:
	add	x8, x0, #144
	str	x8, [sp, #80]
	mov	x9, #25928                      ; =0x6548
	movk	x9, #27756, lsl #16
	movk	x9, #111, lsl #32
	str	x9, [x0]
	mov	w9, #5                          ; =0x5
	strb	w9, [x0, #23]
	mov	w10, #44                        ; =0x2c
	str	x10, [x0, #24]
	mov	w10, #1                         ; =0x1
	strb	w10, [x0, #47]
	mov	w11, #32                        ; =0x20
	str	x11, [x0, #48]
	strb	w10, [x0, #71]
	mov	x11, #28535                     ; =0x6f77
	movk	x11, #27762, lsl #16
	movk	x11, #100, lsl #32
	str	x11, [x0, #72]
	strb	w9, [x0, #95]
	mov	w9, #33                         ; =0x21
	str	x9, [x0, #96]
	strb	w10, [x0, #119]
	mov	w9, #10                         ; =0xa
	str	x9, [x0, #120]
	strb	w10, [x0, #143]
	stp	x0, x8, [sp, #64]
	stp	xzr, xzr, [sp, #40]
	str	xzr, [sp, #56]
Ltmp14:
	add	x0, sp, #40
	mov	w1, #6                          ; =0x6
	bl	__ZNSt3__16vectorIN10playground14guarded_threadENS_9allocatorIS2_EEE7reserveEm
Ltmp15:
; %bb.6:
	ldp	x21, x22, [sp, #64]
	cmp	x21, x22
	b.eq	LBB0_18
; %bb.7:
Lloh7:
	adrp	x19, __ZNSt3__114__thread_proxyB8ne200100INS_5tupleIJNS_10unique_ptrINS_15__thread_structENS_14default_deleteIS3_EEEEZN10playground15try_concurrencyEvE3$_1NS_17reference_wrapperIKNS_12basic_stringIcNS_11char_traitsIcEENS_9allocatorIcEEEEEEEEEEEPvSJ_@PAGE
Lloh8:
	add	x19, x19, __ZNSt3__114__thread_proxyB8ne200100INS_5tupleIJNS_10unique_ptrINS_15__thread_structENS_14default_deleteIS3_EEEEZN10playground15try_concurrencyEvE3$_1NS_17reference_wrapperIKNS_12basic_stringIcNS_11char_traitsIcEENS_9allocatorIcEEEEEEEEEEEPvSJ_@PAGEOFF
	mov	x23, x21
	b	LBB0_10
LBB0_8:                                 ;   in Loop: Header=BB0_10 Depth=1
	ldr	x8, [sp, #104]
	str	xzr, [sp, #104]
	str	x8, [x20], #8
	str	xzr, [sp, #168]
	add	x0, sp, #168
	bl	__ZNSt3__16threadD1Ev
LBB0_9:                                 ;   in Loop: Header=BB0_10 Depth=1
	str	x20, [sp, #48]
	add	x0, sp, #104
	bl	__ZNSt3__16threadD1Ev
	add	x23, x23, #24
	add	x21, x21, #24
	cmp	x23, x22
	b.eq	LBB0_18
LBB0_10:                                ; =>This Inner Loop Header: Depth=1
Ltmp16:
	mov	w0, #8                          ; =0x8
	bl	__Znwm
Ltmp17:
; %bb.11:                               ;   in Loop: Header=BB0_10 Depth=1
Ltmp19:
	mov	x20, x0
	bl	__ZNSt3__115__thread_structC1Ev
Ltmp20:
; %bb.12:                               ;   in Loop: Header=BB0_10 Depth=1
	str	x20, [sp, #168]
Ltmp22:
	mov	w0, #16                         ; =0x10
	bl	__Znwm
Ltmp23:
; %bb.13:                               ;   in Loop: Header=BB0_10 Depth=1
	mov	x3, x0
	str	xzr, [sp, #168]
	stp	x20, x21, [x0]
	str	x0, [sp, #128]
Ltmp25:
	add	x0, sp, #104
	mov	x1, #0                          ; =0x0
	mov	x2, x19
	bl	_pthread_create
Ltmp26:
; %bb.14:                               ;   in Loop: Header=BB0_10 Depth=1
	cbnz	w0, LBB0_71
; %bb.15:                               ;   in Loop: Header=BB0_10 Depth=1
	ldp	x20, x8, [sp, #48]
	cmp	x20, x8
	b.lo	LBB0_8
; %bb.16:                               ;   in Loop: Header=BB0_10 Depth=1
Ltmp31:
	add	x0, sp, #40
	add	x1, sp, #104
	bl	__ZNSt3__16vectorIN10playground14guarded_threadENS_9allocatorIS2_EEE24__emplace_back_slow_pathIJNS_6threadEEEEPS2_DpOT_
Ltmp32:
; %bb.17:                               ;   in Loop: Header=BB0_10 Depth=1
	mov	x20, x0
	b	LBB0_9
LBB0_18:
	ldp	x19, x20, [sp, #40]
	b	LBB0_20
LBB0_19:                                ;   in Loop: Header=BB0_20 Depth=1
	add	x19, x19, #8
LBB0_20:                                ; =>This Inner Loop Header: Depth=1
	cmp	x19, x20
	b.eq	LBB0_23
; %bb.21:                               ;   in Loop: Header=BB0_20 Depth=1
	ldr	x8, [x19]
	cbz	x8, LBB0_19
; %bb.22:                               ;   in Loop: Header=BB0_20 Depth=1
Ltmp34:
	mov	x0, x19
	bl	__ZNSt3__16thread4joinEv
Ltmp35:
	b	LBB0_19
LBB0_23:
Lloh9:
	adrp	x9, __ZNSt3__14coutE@GOTPAGE
Lloh10:
	ldr	x9, [x9, __ZNSt3__14coutE@GOTPAGEOFF]
	ldr	x8, [x9]
	ldur	x10, [x8, #-24]
Ltmp37:
	add	x8, sp, #168
	add	x0, x9, x10
	bl	__ZNKSt3__18ios_base6getlocEv
Ltmp38:
; %bb.24:
Ltmp39:
Lloh11:
	adrp	x1, __ZNSt3__15ctypeIcE2idE@GOTPAGE
Lloh12:
	ldr	x1, [x1, __ZNSt3__15ctypeIcE2idE@GOTPAGEOFF]
	add	x0, sp, #168
	bl	__ZNKSt3__16locale9use_facetERNS0_2idE
Ltmp40:
; %bb.25:
	ldr	x8, [x0]
	ldr	x8, [x8, #56]
Ltmp41:
	mov	w1, #10                         ; =0xa
	blr	x8
Ltmp42:
; %bb.26:
	mov	x19, x0
	add	x0, sp, #168
	bl	__ZNSt3__16localeD1Ev
Ltmp44:
Lloh13:
	adrp	x0, __ZNSt3__14coutE@GOTPAGE
Lloh14:
	ldr	x0, [x0, __ZNSt3__14coutE@GOTPAGEOFF]
	mov	x1, x19
	bl	__ZNSt3__113basic_ostreamIcNS_11char_traitsIcEEE3putEc
Ltmp45:
; %bb.27:
Ltmp46:
Lloh15:
	adrp	x0, __ZNSt3__14coutE@GOTPAGE
Lloh16:
	ldr	x0, [x0, __ZNSt3__14coutE@GOTPAGEOFF]
	bl	__ZNSt3__113basic_ostreamIcNS_11char_traitsIcEEE5flushEv
Ltmp47:
; %bb.28:
	bl	__ZNSt3__16thread20hardware_concurrencyEv
	mov	w8, #6                          ; =0x6
	stp	xzr, x8, [sp, #136]
	mov	w9, w0
	stp	x8, x9, [sp, #120]
	add	x9, sp, #168
	add	x23, x9, #40
	str	x23, [sp, #168]
Lloh17:
	adrp	x9, lCPI0_0@PAGE
Lloh18:
	ldr	q0, [x9, lCPI0_0@PAGEOFF]
	stur	q0, [sp, #176]
Lloh19:
	adrp	x9, __ZNSt3__18__format19__allocating_bufferIcE15__prepare_writeB8ne200100ERNS0_15__output_bufferIcEEm@PAGE
Lloh20:
	add	x9, x9, __ZNSt3__18__format19__allocating_bufferIcE15__prepare_writeB8ne200100ERNS0_15__output_bufferIcEEm@PAGEOFF
	stp	x9, xzr, [sp, #192]
	str	x23, [sp, #464]
	mov	w9, #1                          ; =0x1
	add	x10, sp, #128
	stp	x9, x10, [sp, #104]
Ltmp49:
Lloh21:
	adrp	x1, l_.str.7@PAGE
Lloh22:
	add	x1, x1, l_.str.7@PAGEOFF
	add	x0, sp, #168
	add	x3, sp, #104
	mov	w2, #24                         ; =0x18
	bl	__ZNSt3__112__vformat_toB8ne200100INS_20back_insert_iteratorINS_8__format15__output_bufferIcEEEEcS5_EET_S6_NS_17basic_string_viewIT0_NS_11char_traitsIS8_EEEENS_17basic_format_argsINS_20basic_format_contextIT1_S8_EEEE
Ltmp50:
; %bb.29:
	ldr	x19, [sp, #184]
	mov	x8, #9223372036854775800        ; =0x7ffffffffffffff8
	cmp	x19, x8
	b.hs	LBB0_73
; %bb.30:
	ldr	x20, [sp, #464]
	cmp	x19, #23
	b.hs	LBB0_55
; %bb.31:
	strb	w19, [sp, #39]
	add	x21, sp, #16
	cbnz	x19, LBB0_57
; %bb.32:
	strb	wzr, [x21, x19]
	ldr	x0, [sp, #464]
	cmp	x0, x23
	b.eq	LBB0_34
LBB0_33:
	bl	__ZdlPv
LBB0_34:
	ldrb	w8, [sp, #39]
	sxtb	w9, w8
	ldp	x10, x11, [sp, #16]
	cmp	w9, #0
	add	x9, sp, #16
	csel	x1, x10, x9, lt
	csel	x2, x11, x8, lt
Ltmp54:
Lloh23:
	adrp	x0, __ZNSt3__14coutE@GOTPAGE
Lloh24:
	ldr	x0, [x0, __ZNSt3__14coutE@GOTPAGEOFF]
	bl	__ZNSt3__124__put_character_sequenceB8ne200100IcNS_11char_traitsIcEEEERNS_13basic_ostreamIT_T0_EES7_PKS4_m
Ltmp55:
; %bb.35:
	mov	x19, x0
	ldr	x8, [x0]
	ldur	x9, [x8, #-24]
Ltmp56:
	add	x8, sp, #168
	add	x0, x0, x9
	bl	__ZNKSt3__18ios_base6getlocEv
Ltmp57:
; %bb.36:
Ltmp58:
Lloh25:
	adrp	x1, __ZNSt3__15ctypeIcE2idE@GOTPAGE
Lloh26:
	ldr	x1, [x1, __ZNSt3__15ctypeIcE2idE@GOTPAGEOFF]
	add	x0, sp, #168
	bl	__ZNKSt3__16locale9use_facetERNS0_2idE
Ltmp59:
; %bb.37:
	ldr	x8, [x0]
	ldr	x8, [x8, #56]
Ltmp60:
	mov	w1, #10                         ; =0xa
	blr	x8
Ltmp61:
; %bb.38:
	mov	x20, x0
	add	x0, sp, #168
	bl	__ZNSt3__16localeD1Ev
Ltmp63:
	mov	x0, x19
	mov	x1, x20
	bl	__ZNSt3__113basic_ostreamIcNS_11char_traitsIcEEE3putEc
Ltmp64:
; %bb.39:
Ltmp65:
	mov	x0, x19
	bl	__ZNSt3__113basic_ostreamIcNS_11char_traitsIcEEE5flushEv
Ltmp66:
; %bb.40:
	ldrsb	w8, [sp, #39]
	tbz	w8, #31, LBB0_42
; %bb.41:
	ldr	x0, [sp, #16]
	bl	__ZdlPv
LBB0_42:
Ltmp68:
	mov	w0, #8                          ; =0x8
	bl	__Znwm
Ltmp69:
; %bb.43:
Ltmp71:
	mov	x20, x0
	mov	w0, #8                          ; =0x8
	bl	__Znwm
Ltmp72:
; %bb.44:
Ltmp74:
	mov	x21, x0
	bl	__ZNSt3__115__thread_structC1Ev
Ltmp75:
; %bb.45:
	str	x21, [sp, #168]
Ltmp77:
	mov	w0, #8                          ; =0x8
	bl	__Znwm
Ltmp78:
; %bb.46:
	mov	x3, x0
	str	xzr, [sp, #168]
	str	x21, [x0]
	str	x0, [sp, #128]
Ltmp80:
Lloh27:
	adrp	x2, __ZNSt3__114__thread_proxyB8ne200100INS_5tupleIJNS_10unique_ptrINS_15__thread_structENS_14default_deleteIS3_EEEEZN10playground15try_concurrencyEvE3$_2EEEEEPvSA_@PAGE
Lloh28:
	add	x2, x2, __ZNSt3__114__thread_proxyB8ne200100INS_5tupleIJNS_10unique_ptrINS_15__thread_structENS_14default_deleteIS3_EEEEZN10playground15try_concurrencyEvE3$_2EEEEEPvSA_@PAGEOFF
	add	x0, sp, #8
	mov	x1, #0                          ; =0x0
	bl	_pthread_create
Ltmp81:
; %bb.47:
	cbnz	w0, LBB0_74
; %bb.48:
	ldr	x8, [sp, #8]
	str	x8, [x20]
	str	xzr, [sp, #8]
	add	x0, sp, #8
	bl	__ZNSt3__16threadD1Ev
	ldr	x8, [x20]
	str	x8, [sp, #168]
	str	xzr, [x20]
	mov	x0, x20
	bl	__ZNSt3__16threadD1Ev
	bl	__ZdlPv
Ltmp85:
	add	x0, sp, #168
	bl	__ZNSt3__16thread4joinEv
Ltmp86:
; %bb.49:
	add	x0, sp, #168
	bl	__ZNSt3__16threadD1Ev
	ldr	x20, [sp, #40]
	cbz	x20, LBB0_60
; %bb.50:
	ldr	x8, [sp, #48]
	mov	x0, x20
	cmp	x8, x20
	b.eq	LBB0_59
; %bb.51:
	sub	x19, x8, #8
	b	LBB0_53
LBB0_52:                                ;   in Loop: Header=BB0_53 Depth=1
	mov	x0, x19
	bl	__ZNSt3__16threadD1Ev
	sub	x8, x19, #8
	cmp	x19, x20
	mov	x19, x8
	b.eq	LBB0_58
LBB0_53:                                ; =>This Inner Loop Header: Depth=1
	ldr	x8, [x19]
	cbz	x8, LBB0_52
; %bb.54:                               ;   in Loop: Header=BB0_53 Depth=1
Ltmp88:
	mov	x0, x19
	bl	__ZNSt3__16thread4joinEv
Ltmp89:
	b	LBB0_52
LBB0_55:
	orr	x8, x19, #0x7
	cmp	x8, #23
	mov	w9, #25                         ; =0x19
	csinc	x22, x9, x8, eq
Ltmp52:
	mov	x0, x22
	bl	__Znwm
Ltmp53:
; %bb.56:
	mov	x21, x0
	orr	x8, x22, #0x8000000000000000
	stp	x19, x8, [sp, #24]
	str	x0, [sp, #16]
LBB0_57:
	mov	x0, x21
	mov	x1, x20
	mov	x2, x19
	bl	_memmove
	strb	wzr, [x21, x19]
	ldr	x0, [sp, #464]
	cmp	x0, x23
	b.ne	LBB0_33
	b	LBB0_34
LBB0_58:
	ldr	x0, [sp, #40]
LBB0_59:
	str	x20, [sp, #48]
	bl	__ZdlPv
LBB0_60:
	ldr	x19, [sp, #64]
	cbz	x19, LBB0_67
; %bb.61:
	ldr	x20, [sp, #72]
	mov	x0, x19
	cmp	x20, x19
	b.ne	LBB0_63
	b	LBB0_66
LBB0_62:                                ;   in Loop: Header=BB0_63 Depth=1
	cmp	x20, x19
	b.eq	LBB0_65
LBB0_63:                                ; =>This Inner Loop Header: Depth=1
	ldursb	w8, [x20, #-1]
	sub	x20, x20, #24
	tbz	w8, #31, LBB0_62
; %bb.64:                               ;   in Loop: Header=BB0_63 Depth=1
	ldr	x0, [x20]
	bl	__ZdlPv
	b	LBB0_62
LBB0_65:
	ldr	x0, [sp, #64]
LBB0_66:
	str	x19, [sp, #72]
	bl	__ZdlPv
LBB0_67:
	ldr	x8, [sp, #96]
	cbz	x8, LBB0_69
; %bb.68:
Ltmp91:
	add	x0, sp, #96
	bl	__ZNSt3__16thread4joinEv
Ltmp92:
LBB0_69:
	add	x0, sp, #96
	bl	__ZNSt3__16threadD1Ev
	ldur	x8, [x29, #-56]
Lloh29:
	adrp	x9, ___stack_chk_guard@GOTPAGE
Lloh30:
	ldr	x9, [x9, ___stack_chk_guard@GOTPAGEOFF]
Lloh31:
	ldr	x9, [x9]
	cmp	x9, x8
	b.ne	LBB0_76
; %bb.70:
	add	sp, sp, #480
	ldp	x29, x30, [sp, #48]             ; 16-byte Folded Reload
	ldp	x20, x19, [sp, #32]             ; 16-byte Folded Reload
	ldp	x22, x21, [sp, #16]             ; 16-byte Folded Reload
	ldp	x24, x23, [sp], #64             ; 16-byte Folded Reload
	ret
LBB0_71:
Ltmp28:
Lloh32:
	adrp	x1, l_.str.14@PAGE
Lloh33:
	add	x1, x1, l_.str.14@PAGEOFF
	bl	__ZNSt3__120__throw_system_errorEiPKc
Ltmp29:
	b	LBB0_75
LBB0_72:
Ltmp8:
Lloh34:
	adrp	x1, l_.str.14@PAGE
Lloh35:
	add	x1, x1, l_.str.14@PAGEOFF
	bl	__ZNSt3__120__throw_system_errorEiPKc
Ltmp9:
	b	LBB0_75
LBB0_73:
Ltmp94:
	bl	__ZNSt3__112basic_stringIcNS_11char_traitsIcEENS_9allocatorIcEEE20__throw_length_errorB8ne200100Ev
Ltmp95:
	b	LBB0_75
LBB0_74:
Ltmp82:
Lloh36:
	adrp	x1, l_.str.14@PAGE
Lloh37:
	add	x1, x1, l_.str.14@PAGEOFF
	bl	__ZNSt3__120__throw_system_errorEiPKc
Ltmp83:
LBB0_75:
	brk	#0x1
LBB0_76:
	bl	___stack_chk_fail
LBB0_77:
Ltmp93:
	b	LBB0_100
LBB0_78:
Ltmp87:
	mov	x19, x0
	add	x0, sp, #168
	b	LBB0_103
LBB0_79:
Ltmp79:
	mov	x19, x0
	b	LBB0_91
LBB0_80:
Ltmp76:
	mov	x19, x0
	mov	x0, x21
	bl	__ZdlPv
	b	LBB0_108
LBB0_81:
Ltmp73:
	b	LBB0_107
LBB0_82:
Ltmp70:
	mov	x19, x0
	b	LBB0_114
LBB0_83:
Ltmp51:
	b	LBB0_88
LBB0_84:
Ltmp13:
	mov	x19, x0
	add	x0, sp, #168
	bl	__ZNSt3__128__exception_guard_exceptionsINS_6vectorINS_12basic_stringIcNS_11char_traitsIcEENS_9allocatorIcEEEENS5_IS7_EEE16__destroy_vectorEED1B8ne200100Ev
	b	LBB0_115
LBB0_85:
Ltmp5:
	mov	x19, x0
	add	x0, sp, #168
	bl	__ZNSt3__110unique_ptrINS_15__thread_structENS_14default_deleteIS1_EEED1B8ne200100Ev
	mov	x0, x19
	bl	__Unwind_Resume
LBB0_86:
Ltmp2:
	mov	x19, x0
	mov	x0, x20
	bl	__ZdlPv
	mov	x0, x19
	bl	__Unwind_Resume
LBB0_87:
Ltmp96:
LBB0_88:
	mov	x19, x0
	ldr	x0, [sp, #464]
	cmp	x0, x23
	b.eq	LBB0_114
; %bb.89:
	bl	__ZdlPv
	b	LBB0_114
LBB0_90:
Ltmp84:
	mov	x19, x0
	add	x0, sp, #128
	bl	__ZNSt3__110unique_ptrINS_5tupleIJNS0_INS_15__thread_structENS_14default_deleteIS2_EEEEZN10playground15try_concurrencyEvE3$_2EEENS3_IS8_EEED1B8ne200100Ev
LBB0_91:
	add	x0, sp, #168
	bl	__ZNSt3__110unique_ptrINS_15__thread_structENS_14default_deleteIS1_EEED1B8ne200100Ev
	b	LBB0_108
LBB0_92:
Ltmp62:
	mov	x19, x0
	add	x0, sp, #168
	bl	__ZNSt3__16localeD1Ev
	b	LBB0_96
LBB0_93:
Ltmp43:
	mov	x19, x0
	add	x0, sp, #168
	bl	__ZNSt3__16localeD1Ev
	b	LBB0_114
LBB0_94:
Ltmp10:
	mov	x19, x0
	add	x0, sp, #128
	bl	__ZNSt3__110unique_ptrINS_5tupleIJNS0_INS_15__thread_structENS_14default_deleteIS2_EEEEZN10playground15try_concurrencyEvE3$_0PKcEEENS3_ISA_EEED1B8ne200100Ev
	add	x0, sp, #168
	bl	__ZNSt3__110unique_ptrINS_15__thread_structENS_14default_deleteIS1_EEED1B8ne200100Ev
	mov	x0, x19
	bl	__Unwind_Resume
LBB0_95:
Ltmp67:
	mov	x19, x0
LBB0_96:
	ldrsb	w8, [sp, #39]
	tbz	w8, #31, LBB0_114
; %bb.97:
	ldr	x0, [sp, #16]
	bl	__ZdlPv
	b	LBB0_114
LBB0_98:
Ltmp48:
	mov	x19, x0
	b	LBB0_114
LBB0_99:
Ltmp90:
LBB0_100:
	mov	x19, x0
	cbz	w1, LBB0_116
; %bb.101:
	mov	x0, x19
	bl	___clang_call_terminate
LBB0_102:
Ltmp33:
	mov	x19, x0
	add	x0, sp, #104
LBB0_103:
	bl	__ZNSt3__16threadD1Ev
	b	LBB0_114
LBB0_104:
Ltmp36:
	mov	x19, x0
	b	LBB0_114
LBB0_105:
Ltmp18:
	mov	x19, x0
	b	LBB0_114
LBB0_106:
Ltmp21:
LBB0_107:
	mov	x19, x0
LBB0_108:
	mov	x0, x20
	bl	__ZdlPv
	b	LBB0_114
LBB0_109:
Ltmp24:
	mov	x19, x0
	b	LBB0_113
LBB0_110:
Ltmp27:
	b	LBB0_112
LBB0_111:
Ltmp30:
LBB0_112:
	mov	x19, x0
	add	x0, sp, #128
	bl	__ZNSt3__110unique_ptrINS_5tupleIJNS0_INS_15__thread_structENS_14default_deleteIS2_EEEEZN10playground15try_concurrencyEvE3$_1NS_17reference_wrapperIKNS_12basic_stringIcNS_11char_traitsIcEENS_9allocatorIcEEEEEEEEENS3_ISH_EEED1B8ne200100Ev
LBB0_113:
	add	x0, sp, #168
	bl	__ZNSt3__110unique_ptrINS_15__thread_structENS_14default_deleteIS1_EEED1B8ne200100Ev
LBB0_114:
	add	x0, sp, #40
	bl	__ZNSt3__16vectorIN10playground14guarded_threadENS_9allocatorIS2_EEED1B8ne200100Ev
	add	x0, sp, #64
	bl	__ZNSt3__16vectorINS_12basic_stringIcNS_11char_traitsIcEENS_9allocatorIcEEEENS4_IS6_EEED1B8ne200100Ev
LBB0_115:
	add	x0, sp, #96
	bl	__ZN10playground14guarded_threadD1Ev
LBB0_116:
	mov	x0, x19
	bl	__Unwind_Resume
	.loh AdrpLdrGotLdr	Lloh0, Lloh1, Lloh2
	.loh AdrpAdd	Lloh5, Lloh6
	.loh AdrpAdd	Lloh3, Lloh4
	.loh AdrpAdd	Lloh7, Lloh8
	.loh AdrpLdrGot	Lloh9, Lloh10
	.loh AdrpLdrGot	Lloh11, Lloh12
	.loh AdrpLdrGot	Lloh13, Lloh14
	.loh AdrpLdrGot	Lloh15, Lloh16
	.loh AdrpAdd	Lloh21, Lloh22
	.loh AdrpAdd	Lloh19, Lloh20
	.loh AdrpAdrp	Lloh17, Lloh19
	.loh AdrpLdr	Lloh17, Lloh18
	.loh AdrpLdrGot	Lloh23, Lloh24
	.loh AdrpLdrGot	Lloh25, Lloh26
	.loh AdrpAdd	Lloh27, Lloh28
	.loh AdrpLdrGotLdr	Lloh29, Lloh30, Lloh31
	.loh AdrpAdd	Lloh32, Lloh33
	.loh AdrpAdd	Lloh34, Lloh35
	.loh AdrpAdd	Lloh36, Lloh37
Lfunc_end0:
	.cfi_endproc
	.section	__TEXT,__gcc_except_tab
	.p2align	2, 0x0
GCC_except_table0:
Lexception0:
	.byte	255                             ; @LPStart Encoding = omit
	.byte	155                             ; @TType Encoding = indirect pcrel sdata4
	.uleb128 Lttbase0-Lttbaseref0
Lttbaseref0:
	.byte	1                               ; Call site Encoding = uleb128
	.uleb128 Lcst_end0-Lcst_begin0
Lcst_begin0:
	.uleb128 Lfunc_begin0-Lfunc_begin0      ; >> Call Site 1 <<
	.uleb128 Ltmp0-Lfunc_begin0             ;   Call between Lfunc_begin0 and Ltmp0
	.byte	0                               ;     has no landing pad
	.byte	0                               ;   On action: cleanup
	.uleb128 Ltmp0-Lfunc_begin0             ; >> Call Site 2 <<
	.uleb128 Ltmp1-Ltmp0                    ;   Call between Ltmp0 and Ltmp1
	.uleb128 Ltmp2-Lfunc_begin0             ;     jumps to Ltmp2
	.byte	0                               ;   On action: cleanup
	.uleb128 Ltmp3-Lfunc_begin0             ; >> Call Site 3 <<
	.uleb128 Ltmp4-Ltmp3                    ;   Call between Ltmp3 and Ltmp4
	.uleb128 Ltmp5-Lfunc_begin0             ;     jumps to Ltmp5
	.byte	0                               ;   On action: cleanup
	.uleb128 Ltmp6-Lfunc_begin0             ; >> Call Site 4 <<
	.uleb128 Ltmp7-Ltmp6                    ;   Call between Ltmp6 and Ltmp7
	.uleb128 Ltmp10-Lfunc_begin0            ;     jumps to Ltmp10
	.byte	0                               ;   On action: cleanup
	.uleb128 Ltmp11-Lfunc_begin0            ; >> Call Site 5 <<
	.uleb128 Ltmp12-Ltmp11                  ;   Call between Ltmp11 and Ltmp12
	.uleb128 Ltmp13-Lfunc_begin0            ;     jumps to Ltmp13
	.byte	0                               ;   On action: cleanup
	.uleb128 Ltmp14-Lfunc_begin0            ; >> Call Site 6 <<
	.uleb128 Ltmp15-Ltmp14                  ;   Call between Ltmp14 and Ltmp15
	.uleb128 Ltmp48-Lfunc_begin0            ;     jumps to Ltmp48
	.byte	0                               ;   On action: cleanup
	.uleb128 Ltmp16-Lfunc_begin0            ; >> Call Site 7 <<
	.uleb128 Ltmp17-Ltmp16                  ;   Call between Ltmp16 and Ltmp17
	.uleb128 Ltmp18-Lfunc_begin0            ;     jumps to Ltmp18
	.byte	0                               ;   On action: cleanup
	.uleb128 Ltmp19-Lfunc_begin0            ; >> Call Site 8 <<
	.uleb128 Ltmp20-Ltmp19                  ;   Call between Ltmp19 and Ltmp20
	.uleb128 Ltmp21-Lfunc_begin0            ;     jumps to Ltmp21
	.byte	0                               ;   On action: cleanup
	.uleb128 Ltmp22-Lfunc_begin0            ; >> Call Site 9 <<
	.uleb128 Ltmp23-Ltmp22                  ;   Call between Ltmp22 and Ltmp23
	.uleb128 Ltmp24-Lfunc_begin0            ;     jumps to Ltmp24
	.byte	0                               ;   On action: cleanup
	.uleb128 Ltmp25-Lfunc_begin0            ; >> Call Site 10 <<
	.uleb128 Ltmp26-Ltmp25                  ;   Call between Ltmp25 and Ltmp26
	.uleb128 Ltmp27-Lfunc_begin0            ;     jumps to Ltmp27
	.byte	0                               ;   On action: cleanup
	.uleb128 Ltmp31-Lfunc_begin0            ; >> Call Site 11 <<
	.uleb128 Ltmp32-Ltmp31                  ;   Call between Ltmp31 and Ltmp32
	.uleb128 Ltmp33-Lfunc_begin0            ;     jumps to Ltmp33
	.byte	0                               ;   On action: cleanup
	.uleb128 Ltmp34-Lfunc_begin0            ; >> Call Site 12 <<
	.uleb128 Ltmp35-Ltmp34                  ;   Call between Ltmp34 and Ltmp35
	.uleb128 Ltmp36-Lfunc_begin0            ;     jumps to Ltmp36
	.byte	0                               ;   On action: cleanup
	.uleb128 Ltmp37-Lfunc_begin0            ; >> Call Site 13 <<
	.uleb128 Ltmp38-Ltmp37                  ;   Call between Ltmp37 and Ltmp38
	.uleb128 Ltmp48-Lfunc_begin0            ;     jumps to Ltmp48
	.byte	0                               ;   On action: cleanup
	.uleb128 Ltmp39-Lfunc_begin0            ; >> Call Site 14 <<
	.uleb128 Ltmp42-Ltmp39                  ;   Call between Ltmp39 and Ltmp42
	.uleb128 Ltmp43-Lfunc_begin0            ;     jumps to Ltmp43
	.byte	0                               ;   On action: cleanup
	.uleb128 Ltmp44-Lfunc_begin0            ; >> Call Site 15 <<
	.uleb128 Ltmp47-Ltmp44                  ;   Call between Ltmp44 and Ltmp47
	.uleb128 Ltmp48-Lfunc_begin0            ;     jumps to Ltmp48
	.byte	0                               ;   On action: cleanup
	.uleb128 Ltmp49-Lfunc_begin0            ; >> Call Site 16 <<
	.uleb128 Ltmp50-Ltmp49                  ;   Call between Ltmp49 and Ltmp50
	.uleb128 Ltmp51-Lfunc_begin0            ;     jumps to Ltmp51
	.byte	0                               ;   On action: cleanup
	.uleb128 Ltmp54-Lfunc_begin0            ; >> Call Site 17 <<
	.uleb128 Ltmp57-Ltmp54                  ;   Call between Ltmp54 and Ltmp57
	.uleb128 Ltmp67-Lfunc_begin0            ;     jumps to Ltmp67
	.byte	0                               ;   On action: cleanup
	.uleb128 Ltmp58-Lfunc_begin0            ; >> Call Site 18 <<
	.uleb128 Ltmp61-Ltmp58                  ;   Call between Ltmp58 and Ltmp61
	.uleb128 Ltmp62-Lfunc_begin0            ;     jumps to Ltmp62
	.byte	0                               ;   On action: cleanup
	.uleb128 Ltmp63-Lfunc_begin0            ; >> Call Site 19 <<
	.uleb128 Ltmp66-Ltmp63                  ;   Call between Ltmp63 and Ltmp66
	.uleb128 Ltmp67-Lfunc_begin0            ;     jumps to Ltmp67
	.byte	0                               ;   On action: cleanup
	.uleb128 Ltmp68-Lfunc_begin0            ; >> Call Site 20 <<
	.uleb128 Ltmp69-Ltmp68                  ;   Call between Ltmp68 and Ltmp69
	.uleb128 Ltmp70-Lfunc_begin0            ;     jumps to Ltmp70
	.byte	0                               ;   On action: cleanup
	.uleb128 Ltmp71-Lfunc_begin0            ; >> Call Site 21 <<
	.uleb128 Ltmp72-Ltmp71                  ;   Call between Ltmp71 and Ltmp72
	.uleb128 Ltmp73-Lfunc_begin0            ;     jumps to Ltmp73
	.byte	0                               ;   On action: cleanup
	.uleb128 Ltmp74-Lfunc_begin0            ; >> Call Site 22 <<
	.uleb128 Ltmp75-Ltmp74                  ;   Call between Ltmp74 and Ltmp75
	.uleb128 Ltmp76-Lfunc_begin0            ;     jumps to Ltmp76
	.byte	0                               ;   On action: cleanup
	.uleb128 Ltmp77-Lfunc_begin0            ; >> Call Site 23 <<
	.uleb128 Ltmp78-Ltmp77                  ;   Call between Ltmp77 and Ltmp78
	.uleb128 Ltmp79-Lfunc_begin0            ;     jumps to Ltmp79
	.byte	0                               ;   On action: cleanup
	.uleb128 Ltmp80-Lfunc_begin0            ; >> Call Site 24 <<
	.uleb128 Ltmp81-Ltmp80                  ;   Call between Ltmp80 and Ltmp81
	.uleb128 Ltmp84-Lfunc_begin0            ;     jumps to Ltmp84
	.byte	0                               ;   On action: cleanup
	.uleb128 Ltmp85-Lfunc_begin0            ; >> Call Site 25 <<
	.uleb128 Ltmp86-Ltmp85                  ;   Call between Ltmp85 and Ltmp86
	.uleb128 Ltmp87-Lfunc_begin0            ;     jumps to Ltmp87
	.byte	0                               ;   On action: cleanup
	.uleb128 Ltmp88-Lfunc_begin0            ; >> Call Site 26 <<
	.uleb128 Ltmp89-Ltmp88                  ;   Call between Ltmp88 and Ltmp89
	.uleb128 Ltmp90-Lfunc_begin0            ;     jumps to Ltmp90
	.byte	5                               ;   On action: 3
	.uleb128 Ltmp52-Lfunc_begin0            ; >> Call Site 27 <<
	.uleb128 Ltmp53-Ltmp52                  ;   Call between Ltmp52 and Ltmp53
	.uleb128 Ltmp96-Lfunc_begin0            ;     jumps to Ltmp96
	.byte	0                               ;   On action: cleanup
	.uleb128 Ltmp53-Lfunc_begin0            ; >> Call Site 28 <<
	.uleb128 Ltmp91-Ltmp53                  ;   Call between Ltmp53 and Ltmp91
	.byte	0                               ;     has no landing pad
	.byte	0                               ;   On action: cleanup
	.uleb128 Ltmp91-Lfunc_begin0            ; >> Call Site 29 <<
	.uleb128 Ltmp92-Ltmp91                  ;   Call between Ltmp91 and Ltmp92
	.uleb128 Ltmp93-Lfunc_begin0            ;     jumps to Ltmp93
	.byte	5                               ;   On action: 3
	.uleb128 Ltmp28-Lfunc_begin0            ; >> Call Site 30 <<
	.uleb128 Ltmp29-Ltmp28                  ;   Call between Ltmp28 and Ltmp29
	.uleb128 Ltmp30-Lfunc_begin0            ;     jumps to Ltmp30
	.byte	0                               ;   On action: cleanup
	.uleb128 Ltmp8-Lfunc_begin0             ; >> Call Site 31 <<
	.uleb128 Ltmp9-Ltmp8                    ;   Call between Ltmp8 and Ltmp9
	.uleb128 Ltmp10-Lfunc_begin0            ;     jumps to Ltmp10
	.byte	0                               ;   On action: cleanup
	.uleb128 Ltmp94-Lfunc_begin0            ; >> Call Site 32 <<
	.uleb128 Ltmp95-Ltmp94                  ;   Call between Ltmp94 and Ltmp95
	.uleb128 Ltmp96-Lfunc_begin0            ;     jumps to Ltmp96
	.byte	0                               ;   On action: cleanup
	.uleb128 Ltmp82-Lfunc_begin0            ; >> Call Site 33 <<
	.uleb128 Ltmp83-Ltmp82                  ;   Call between Ltmp82 and Ltmp83
	.uleb128 Ltmp84-Lfunc_begin0            ;     jumps to Ltmp84
	.byte	0                               ;   On action: cleanup
	.uleb128 Ltmp83-Lfunc_begin0            ; >> Call Site 34 <<
	.uleb128 Lfunc_end0-Ltmp83              ;   Call between Ltmp83 and Lfunc_end0
	.byte	0                               ;     has no landing pad
	.byte	0                               ;   On action: cleanup
Lcst_end0:
	.byte	0                               ; >> Action Record 1 <<
                                        ;   Cleanup
	.byte	0                               ;   No further actions
	.byte	0                               ; >> Action Record 2 <<
                                        ;   Cleanup
	.byte	125                             ;   Continue to action 1
	.byte	1                               ; >> Action Record 3 <<
                                        ;   Catch TypeInfo 1
	.byte	125                             ;   Continue to action 2
	.p2align	2, 0x0
                                        ; >> Catch TypeInfos <<
	.long	0                               ; TypeInfo 1
Lttbase0:
	.p2align	2, 0x0
                                        ; -- End function
	.section	__TEXT,__text,regular,pure_instructions
	.private_extern	__ZNSt3__16vectorIN10playground14guarded_threadENS_9allocatorIS2_EEE7reserveEm ; -- Begin function _ZNSt3__16vectorIN10playground14guarded_threadENS_9allocatorIS2_EEE7reserveEm
	.globl	__ZNSt3__16vectorIN10playground14guarded_threadENS_9allocatorIS2_EEE7reserveEm
	.weak_def_can_be_hidden	__ZNSt3__16vectorIN10playground14guarded_threadENS_9allocatorIS2_EEE7reserveEm
	.p2align	2
__ZNSt3__16vectorIN10playground14guarded_threadENS_9allocatorIS2_EEE7reserveEm: ; @_ZNSt3__16vectorIN10playground14guarded_threadENS_9allocatorIS2_EEE7reserveEm
Lfunc_begin1:
	.cfi_startproc
	.cfi_personality 155, ___gxx_personality_v0
	.cfi_lsda 16, Lexception1
; %bb.0:
	stp	x24, x23, [sp, #-64]!           ; 16-byte Folded Spill
	stp	x22, x21, [sp, #16]             ; 16-byte Folded Spill
	stp	x20, x19, [sp, #32]             ; 16-byte Folded Spill
	stp	x29, x30, [sp, #48]             ; 16-byte Folded Spill
	add	x29, sp, #48
	.cfi_def_cfa w29, 16
	.cfi_offset w30, -8
	.cfi_offset w29, -16
	.cfi_offset w19, -24
	.cfi_offset w20, -32
	.cfi_offset w21, -40
	.cfi_offset w22, -48
	.cfi_offset w23, -56
	.cfi_offset w24, -64
	ldr	x8, [x0, #16]
	ldr	x19, [x0]
	sub	x8, x8, x19
	cmp	x1, x8, asr #3
	b.ls	LBB1_15
; %bb.1:
	lsr	x8, x1, #61
	cbnz	x8, LBB1_16
; %bb.2:
	mov	x20, x0
	ldr	x24, [x0, #8]
	lsl	x21, x1, #3
	mov	x0, x21
	bl	__Znwm
	mov	x22, x0
	subs	x23, x24, x19
	b.eq	LBB1_13
; %bb.3:
	sub	x10, x23, #8
	mov	x8, x19
	mov	x9, x22
	cmp	x10, #152
	b.lo	LBB1_8
; %bb.4:
	and	x8, x10, #0xfffffffffffffff8
	add	x9, x8, x22
	add	x9, x9, #8
	add	x8, x19, x8
	add	x8, x8, #8
	cmp	x22, x8
	ccmp	x19, x9, #2, lo
	mov	x8, x19
	mov	x9, x22
	b.lo	LBB1_8
; %bb.5:
	asr	x13, x23, #3
	lsr	x8, x10, #3
	add	x10, x8, #1
	and	x11, x10, #0x3ffffffffffffff8
	lsl	x9, x11, #3
	add	x8, x19, x9
	add	x9, x22, x9
	add	x12, x19, #32
	sub	x13, x23, x13, lsl #3
	add	x13, x13, x22
	add	x13, x13, #32
	movi.2d	v0, #0000000000000000
	mov	x14, x11
LBB1_6:                                 ; =>This Inner Loop Header: Depth=1
	ldp	q1, q2, [x12, #-32]
	ldp	q3, q4, [x12]
	stp	q1, q2, [x13, #-32]
	stp	q0, q0, [x12, #-32]
	stp	q0, q0, [x12], #64
	stp	q3, q4, [x13], #64
	subs	x14, x14, #8
	b.ne	LBB1_6
; %bb.7:
	cmp	x10, x11
	b.eq	LBB1_10
LBB1_8:                                 ; =>This Inner Loop Header: Depth=1
	ldr	x10, [x8]
	str	x10, [x9], #8
	str	xzr, [x8], #8
	cmp	x8, x24
	b.ne	LBB1_8
	b	LBB1_10
LBB1_9:                                 ;   in Loop: Header=BB1_10 Depth=1
	mov	x0, x19
	bl	__ZNSt3__16threadD1Ev
	add	x19, x19, #8
	cmp	x19, x24
	b.eq	LBB1_12
LBB1_10:                                ; =>This Inner Loop Header: Depth=1
	ldr	x8, [x19]
	cbz	x8, LBB1_9
; %bb.11:                               ;   in Loop: Header=BB1_10 Depth=1
Ltmp97:
	mov	x0, x19
	bl	__ZNSt3__16thread4joinEv
Ltmp98:
	b	LBB1_9
LBB1_12:
	ldr	x19, [x20]
LBB1_13:
	add	x8, x22, x23
	add	x9, x22, x21
	stp	x22, x8, [x20]
	str	x9, [x20, #16]
	cbz	x19, LBB1_15
; %bb.14:
	mov	x0, x19
	ldp	x29, x30, [sp, #48]             ; 16-byte Folded Reload
	ldp	x20, x19, [sp, #32]             ; 16-byte Folded Reload
	ldp	x22, x21, [sp, #16]             ; 16-byte Folded Reload
	ldp	x24, x23, [sp], #64             ; 16-byte Folded Reload
	b	__ZdlPv
LBB1_15:
	ldp	x29, x30, [sp, #48]             ; 16-byte Folded Reload
	ldp	x20, x19, [sp, #32]             ; 16-byte Folded Reload
	ldp	x22, x21, [sp, #16]             ; 16-byte Folded Reload
	ldp	x24, x23, [sp], #64             ; 16-byte Folded Reload
	ret
LBB1_16:
	bl	__ZNSt3__16vectorIN10playground14guarded_threadENS_9allocatorIS2_EEE20__throw_length_errorB8ne200100Ev
LBB1_17:
Ltmp99:
	bl	___clang_call_terminate
Lfunc_end1:
	.cfi_endproc
	.section	__TEXT,__gcc_except_tab
	.p2align	2, 0x0
GCC_except_table1:
Lexception1:
	.byte	255                             ; @LPStart Encoding = omit
	.byte	155                             ; @TType Encoding = indirect pcrel sdata4
	.uleb128 Lttbase1-Lttbaseref1
Lttbaseref1:
	.byte	1                               ; Call site Encoding = uleb128
	.uleb128 Lcst_end1-Lcst_begin1
Lcst_begin1:
	.uleb128 Lfunc_begin1-Lfunc_begin1      ; >> Call Site 1 <<
	.uleb128 Ltmp97-Lfunc_begin1            ;   Call between Lfunc_begin1 and Ltmp97
	.byte	0                               ;     has no landing pad
	.byte	0                               ;   On action: cleanup
	.uleb128 Ltmp97-Lfunc_begin1            ; >> Call Site 2 <<
	.uleb128 Ltmp98-Ltmp97                  ;   Call between Ltmp97 and Ltmp98
	.uleb128 Ltmp99-Lfunc_begin1            ;     jumps to Ltmp99
	.byte	1                               ;   On action: 1
	.uleb128 Ltmp98-Lfunc_begin1            ; >> Call Site 3 <<
	.uleb128 Lfunc_end1-Ltmp98              ;   Call between Ltmp98 and Lfunc_end1
	.byte	0                               ;     has no landing pad
	.byte	0                               ;   On action: cleanup
Lcst_end1:
	.byte	1                               ; >> Action Record 1 <<
                                        ;   Catch TypeInfo 1
	.byte	0                               ;   No further actions
	.p2align	2, 0x0
                                        ; >> Catch TypeInfos <<
	.long	0                               ; TypeInfo 1
Lttbase1:
	.p2align	2, 0x0
                                        ; -- End function
	.section	__TEXT,__text,regular,pure_instructions
	.globl	__ZN10playground14guarded_threadD1Ev ; -- Begin function _ZN10playground14guarded_threadD1Ev
	.weak_def_can_be_hidden	__ZN10playground14guarded_threadD1Ev
	.p2align	2
__ZN10playground14guarded_threadD1Ev:   ; @_ZN10playground14guarded_threadD1Ev
Lfunc_begin2:
	.cfi_startproc
	.cfi_personality 155, ___gxx_personality_v0
	.cfi_lsda 16, Lexception2
; %bb.0:
	stp	x20, x19, [sp, #-32]!           ; 16-byte Folded Spill
	stp	x29, x30, [sp, #16]             ; 16-byte Folded Spill
	add	x29, sp, #16
	.cfi_def_cfa w29, 16
	.cfi_offset w30, -8
	.cfi_offset w29, -16
	.cfi_offset w19, -24
	.cfi_offset w20, -32
	ldr	x8, [x0]
	cbz	x8, LBB2_2
; %bb.1:
Ltmp100:
	mov	x19, x0
	bl	__ZNSt3__16thread4joinEv
	mov	x0, x19
Ltmp101:
LBB2_2:
	ldp	x29, x30, [sp, #16]             ; 16-byte Folded Reload
	ldp	x20, x19, [sp], #32             ; 16-byte Folded Reload
	b	__ZNSt3__16threadD1Ev
LBB2_3:
Ltmp102:
	bl	___clang_call_terminate
Lfunc_end2:
	.cfi_endproc
	.section	__TEXT,__gcc_except_tab
	.p2align	2, 0x0
GCC_except_table2:
Lexception2:
	.byte	255                             ; @LPStart Encoding = omit
	.byte	155                             ; @TType Encoding = indirect pcrel sdata4
	.uleb128 Lttbase2-Lttbaseref2
Lttbaseref2:
	.byte	1                               ; Call site Encoding = uleb128
	.uleb128 Lcst_end2-Lcst_begin2
Lcst_begin2:
	.uleb128 Ltmp100-Lfunc_begin2           ; >> Call Site 1 <<
	.uleb128 Ltmp101-Ltmp100                ;   Call between Ltmp100 and Ltmp101
	.uleb128 Ltmp102-Lfunc_begin2           ;     jumps to Ltmp102
	.byte	1                               ;   On action: 1
Lcst_end2:
	.byte	1                               ; >> Action Record 1 <<
                                        ;   Catch TypeInfo 1
	.byte	0                               ;   No further actions
	.p2align	2, 0x0
                                        ; >> Catch TypeInfos <<
	.long	0                               ; TypeInfo 1
Lttbase2:
	.p2align	2, 0x0
                                        ; -- End function
	.section	__TEXT,__text,regular,pure_instructions
	.private_extern	__ZNSt3__16vectorIN10playground14guarded_threadENS_9allocatorIS2_EEED1B8ne200100Ev ; -- Begin function _ZNSt3__16vectorIN10playground14guarded_threadENS_9allocatorIS2_EEED1B8ne200100Ev
	.globl	__ZNSt3__16vectorIN10playground14guarded_threadENS_9allocatorIS2_EEED1B8ne200100Ev
	.weak_def_can_be_hidden	__ZNSt3__16vectorIN10playground14guarded_threadENS_9allocatorIS2_EEED1B8ne200100Ev
	.p2align	2
__ZNSt3__16vectorIN10playground14guarded_threadENS_9allocatorIS2_EEED1B8ne200100Ev: ; @_ZNSt3__16vectorIN10playground14guarded_threadENS_9allocatorIS2_EEED1B8ne200100Ev
Lfunc_begin3:
	.cfi_startproc
	.cfi_personality 155, ___gxx_personality_v0
	.cfi_lsda 16, Lexception3
; %bb.0:
	stp	x22, x21, [sp, #-48]!           ; 16-byte Folded Spill
	stp	x20, x19, [sp, #16]             ; 16-byte Folded Spill
	stp	x29, x30, [sp, #32]             ; 16-byte Folded Spill
	add	x29, sp, #32
	.cfi_def_cfa w29, 16
	.cfi_offset w30, -8
	.cfi_offset w29, -16
	.cfi_offset w19, -24
	.cfi_offset w20, -32
	.cfi_offset w21, -40
	.cfi_offset w22, -48
	mov	x19, x0
	ldr	x21, [x0]
	cbz	x21, LBB3_8
; %bb.1:
	ldr	x8, [x19, #8]
	mov	x0, x21
	cmp	x8, x21
	b.eq	LBB3_7
; %bb.2:
	sub	x20, x8, #8
	b	LBB3_4
LBB3_3:                                 ;   in Loop: Header=BB3_4 Depth=1
	mov	x0, x20
	bl	__ZNSt3__16threadD1Ev
	sub	x8, x20, #8
	cmp	x20, x21
	mov	x20, x8
	b.eq	LBB3_6
LBB3_4:                                 ; =>This Inner Loop Header: Depth=1
	ldr	x8, [x20]
	cbz	x8, LBB3_3
; %bb.5:                                ;   in Loop: Header=BB3_4 Depth=1
Ltmp103:
	mov	x0, x20
	bl	__ZNSt3__16thread4joinEv
Ltmp104:
	b	LBB3_3
LBB3_6:
	ldr	x0, [x19]
LBB3_7:
	str	x21, [x19, #8]
	bl	__ZdlPv
LBB3_8:
	mov	x0, x19
	ldp	x29, x30, [sp, #32]             ; 16-byte Folded Reload
	ldp	x20, x19, [sp, #16]             ; 16-byte Folded Reload
	ldp	x22, x21, [sp], #48             ; 16-byte Folded Reload
	ret
LBB3_9:
Ltmp105:
	bl	___clang_call_terminate
Lfunc_end3:
	.cfi_endproc
	.section	__TEXT,__gcc_except_tab
	.p2align	2, 0x0
GCC_except_table3:
Lexception3:
	.byte	255                             ; @LPStart Encoding = omit
	.byte	155                             ; @TType Encoding = indirect pcrel sdata4
	.uleb128 Lttbase3-Lttbaseref3
Lttbaseref3:
	.byte	1                               ; Call site Encoding = uleb128
	.uleb128 Lcst_end3-Lcst_begin3
Lcst_begin3:
	.uleb128 Ltmp103-Lfunc_begin3           ; >> Call Site 1 <<
	.uleb128 Ltmp104-Ltmp103                ;   Call between Ltmp103 and Ltmp104
	.uleb128 Ltmp105-Lfunc_begin3           ;     jumps to Ltmp105
	.byte	1                               ;   On action: 1
Lcst_end3:
	.byte	1                               ; >> Action Record 1 <<
                                        ;   Catch TypeInfo 1
	.byte	0                               ;   No further actions
	.p2align	2, 0x0
                                        ; >> Catch TypeInfos <<
	.long	0                               ; TypeInfo 1
Lttbase3:
	.p2align	2, 0x0
                                        ; -- End function
	.section	__TEXT,__text,regular,pure_instructions
	.private_extern	__ZNSt3__16vectorINS_12basic_stringIcNS_11char_traitsIcEENS_9allocatorIcEEEENS4_IS6_EEED1B8ne200100Ev ; -- Begin function _ZNSt3__16vectorINS_12basic_stringIcNS_11char_traitsIcEENS_9allocatorIcEEEENS4_IS6_EEED1B8ne200100Ev
	.globl	__ZNSt3__16vectorINS_12basic_stringIcNS_11char_traitsIcEENS_9allocatorIcEEEENS4_IS6_EEED1B8ne200100Ev
	.weak_def_can_be_hidden	__ZNSt3__16vectorINS_12basic_stringIcNS_11char_traitsIcEENS_9allocatorIcEEEENS4_IS6_EEED1B8ne200100Ev
	.p2align	2
__ZNSt3__16vectorINS_12basic_stringIcNS_11char_traitsIcEENS_9allocatorIcEEEENS4_IS6_EEED1B8ne200100Ev: ; @_ZNSt3__16vectorINS_12basic_stringIcNS_11char_traitsIcEENS_9allocatorIcEEEENS4_IS6_EEED1B8ne200100Ev
	.cfi_startproc
; %bb.0:
	stp	x22, x21, [sp, #-48]!           ; 16-byte Folded Spill
	stp	x20, x19, [sp, #16]             ; 16-byte Folded Spill
	stp	x29, x30, [sp, #32]             ; 16-byte Folded Spill
	add	x29, sp, #32
	.cfi_def_cfa w29, 16
	.cfi_offset w30, -8
	.cfi_offset w29, -16
	.cfi_offset w19, -24
	.cfi_offset w20, -32
	.cfi_offset w21, -40
	.cfi_offset w22, -48
	mov	x19, x0
	ldr	x20, [x0]
	cbz	x20, LBB4_7
; %bb.1:
	ldr	x21, [x19, #8]
	mov	x0, x20
	cmp	x21, x20
	b.ne	LBB4_3
	b	LBB4_6
LBB4_2:                                 ;   in Loop: Header=BB4_3 Depth=1
	cmp	x21, x20
	b.eq	LBB4_5
LBB4_3:                                 ; =>This Inner Loop Header: Depth=1
	ldursb	w8, [x21, #-1]
	sub	x21, x21, #24
	tbz	w8, #31, LBB4_2
; %bb.4:                                ;   in Loop: Header=BB4_3 Depth=1
	ldr	x0, [x21]
	bl	__ZdlPv
	b	LBB4_2
LBB4_5:
	ldr	x0, [x19]
LBB4_6:
	str	x20, [x19, #8]
	bl	__ZdlPv
LBB4_7:
	mov	x0, x19
	ldp	x29, x30, [sp, #32]             ; 16-byte Folded Reload
	ldp	x20, x19, [sp, #16]             ; 16-byte Folded Reload
	ldp	x22, x21, [sp], #48             ; 16-byte Folded Reload
	ret
	.cfi_endproc
                                        ; -- End function
	.section	__TEXT,__literal16,16byte_literals
	.p2align	4, 0x0                          ; -- Begin function _ZN10playground9try_mutexEv
lCPI5_0:
	.quad	1                               ; 0x1
	.quad	2                               ; 0x2
lCPI5_1:
	.quad	256                             ; 0x100
	.quad	0                               ; 0x0
	.section	__TEXT,__text,regular,pure_instructions
	.globl	__ZN10playground9try_mutexEv
	.p2align	2
__ZN10playground9try_mutexEv:           ; @_ZN10playground9try_mutexEv
Lfunc_begin4:
	.cfi_startproc
	.cfi_personality 155, ___gxx_personality_v0
	.cfi_lsda 16, Lexception4
; %bb.0:
	stp	x28, x27, [sp, #-96]!           ; 16-byte Folded Spill
	stp	x26, x25, [sp, #16]             ; 16-byte Folded Spill
	stp	x24, x23, [sp, #32]             ; 16-byte Folded Spill
	stp	x22, x21, [sp, #48]             ; 16-byte Folded Spill
	stp	x20, x19, [sp, #64]             ; 16-byte Folded Spill
	stp	x29, x30, [sp, #80]             ; 16-byte Folded Spill
	add	x29, sp, #80
	sub	sp, sp, #608
	.cfi_def_cfa w29, 16
	.cfi_offset w30, -8
	.cfi_offset w29, -16
	.cfi_offset w19, -24
	.cfi_offset w20, -32
	.cfi_offset w21, -40
	.cfi_offset w22, -48
	.cfi_offset w23, -56
	.cfi_offset w24, -64
	.cfi_offset w25, -72
	.cfi_offset w26, -80
	.cfi_offset w27, -88
	.cfi_offset w28, -96
	mov	w28, #0                         ; =0x0
	add	x9, sp, #280
Lloh38:
	adrp	x8, ___stack_chk_guard@GOTPAGE
Lloh39:
	ldr	x8, [x8, ___stack_chk_guard@GOTPAGEOFF]
Lloh40:
	ldr	x8, [x8]
	mov	x20, #20472                     ; =0x4ff8
	movk	x20, #56534, lsl #16
	movk	x20, #1, lsl #32
	stur	x8, [x29, #-104]
	mov	w22, #51704                     ; =0xc9f8
	movk	w22, #15258, lsl #16
	add	x23, sp, #280
	add	x26, x9, #40
	mov	w24, #2                         ; =0x2
	dup.2d	v1, x24
	mov	w19, #4                         ; =0x4
	mov	w25, #6                         ; =0x6
	mov	w27, #8                         ; =0x8
	dup.2d	v0, x19
	stp	q0, q1, [sp, #48]               ; 32-byte Folded Spill
	dup.2d	v0, x25
	str	q0, [sp, #32]                   ; 16-byte Folded Spill
Lloh41:
	adrp	x8, lCPI5_0@PAGE
Lloh42:
	ldr	q0, [x8, lCPI5_0@PAGEOFF]
	str	q0, [sp, #112]                  ; 16-byte Folded Spill
	dup.2d	v0, x27
	str	q0, [sp, #16]                   ; 16-byte Folded Spill
Lloh43:
	adrp	x8, lCPI5_1@PAGE
Lloh44:
	ldr	q0, [x8, lCPI5_1@PAGEOFF]
	str	q0, [sp, #96]                   ; 16-byte Folded Spill
	str	x26, [sp, #8]                   ; 8-byte Folded Spill
	b	LBB5_2
LBB5_1:                                 ;   in Loop: Header=BB5_2 Depth=1
	add	w28, w28, #1
	cmp	w28, #3
	mov	x20, #20472                     ; =0x4ff8
	movk	x20, #56534, lsl #16
	movk	x20, #1, lsl #32
	b.eq	LBB5_92
LBB5_2:                                 ; =>This Loop Header: Depth=1
                                        ;     Child Loop BB5_4 Depth 2
                                        ;     Child Loop BB5_46 Depth 2
	str	w28, [sp, #92]                  ; 4-byte Folded Spill
	bl	__ZNSt3__16chrono12steady_clock3nowEv
	mov	x28, x0
Ltmp106:
	mov	x0, x20
	bl	__Znwm
Ltmp107:
; %bb.3:                                ;   in Loop: Header=BB5_2 Depth=1
	mov	x8, #20416                      ; =0x4fc0
	movk	x8, #56534, lsl #16
	movk	x8, #1, lsl #32
	add	x8, x0, x8
	add	x9, x0, x20
	str	x0, [sp, #280]
	str	x9, [sp, #296]
	add	x9, x0, #32
	mov	w10, #51704                     ; =0xc9f8
	movk	w10, #15258, lsl #16
	ldr	q0, [sp, #112]                  ; 16-byte Folded Reload
	ldp	q5, q4, [sp, #48]               ; 32-byte Folded Reload
	ldp	q7, q6, [sp, #16]               ; 32-byte Folded Reload
LBB5_4:                                 ;   Parent Loop BB5_2 Depth=1
                                        ; =>  This Inner Loop Header: Depth=2
	add.2d	v1, v0, v4
	add.2d	v2, v0, v5
	add.2d	v3, v0, v6
	stp	q0, q1, [x9, #-32]
	stp	q2, q3, [x9], #64
	add.2d	v0, v0, v7
	subs	x10, x10, #8
	b.ne	LBB5_4
; %bb.5:                                ;   in Loop: Header=BB5_2 Depth=1
	add	x9, x22, #1
	add	x10, x22, #2
	stp	x9, x10, [x8]
	add	x9, x22, #3
	add	x10, x22, #4
	stp	x9, x10, [x8, #16]
	add	x9, x22, #5
	add	x10, x22, #6
	stp	x9, x10, [x8, #32]
	add	x9, x22, #7
	str	x9, [x8, #48]
	add	x8, x0, x20
	str	x8, [sp, #288]
	str	xzr, [sp, #232]
Ltmp108:
	mov	w0, #8                          ; =0x8
	bl	__Znwm
Ltmp109:
; %bb.6:                                ;   in Loop: Header=BB5_2 Depth=1
Ltmp111:
	mov	x20, x0
	bl	__ZNSt3__115__thread_structC1Ev
Ltmp112:
; %bb.7:                                ;   in Loop: Header=BB5_2 Depth=1
	str	x20, [sp, #240]
Ltmp114:
	mov	w0, #24                         ; =0x18
	bl	__Znwm
Ltmp115:
; %bb.8:                                ;   in Loop: Header=BB5_2 Depth=1
	mov	x3, x0
	str	xzr, [sp, #240]
	stp	x20, x23, [x0]
	add	x8, sp, #232
	str	x8, [x0, #16]
	str	x0, [sp, #168]
Ltmp117:
	add	x0, sp, #216
	mov	x1, #0                          ; =0x0
Lloh45:
	adrp	x2, __ZNSt3__114__thread_proxyB8ne200100INS_5tupleIJNS_10unique_ptrINS_15__thread_structENS_14default_deleteIS3_EEEEZN10playground12_GLOBAL__N_124sum_and_add_without_lockEvE3$_0NS_17reference_wrapperINS_6vectorIxNS_9allocatorIxEEEEEENSA_IxEEEEEEEPvSI_@PAGE
Lloh46:
	add	x2, x2, __ZNSt3__114__thread_proxyB8ne200100INS_5tupleIJNS_10unique_ptrINS_15__thread_structENS_14default_deleteIS3_EEEEZN10playground12_GLOBAL__N_124sum_and_add_without_lockEvE3$_0NS_17reference_wrapperINS_6vectorIxNS_9allocatorIxEEEEEENSA_IxEEEEEEEPvSI_@PAGEOFF
	bl	_pthread_create
Ltmp118:
; %bb.9:                                ;   in Loop: Header=BB5_2 Depth=1
	cbnz	w0, LBB5_95
; %bb.10:                               ;   in Loop: Header=BB5_2 Depth=1
	ldr	x8, [sp, #216]
	stp	xzr, x8, [sp, #216]
	add	x0, sp, #216
	bl	__ZNSt3__16threadD1Ev
Ltmp123:
	mov	w0, #8                          ; =0x8
	bl	__Znwm
Ltmp124:
; %bb.11:                               ;   in Loop: Header=BB5_2 Depth=1
Ltmp126:
	mov	x20, x0
	bl	__ZNSt3__115__thread_structC1Ev
Ltmp127:
; %bb.12:                               ;   in Loop: Header=BB5_2 Depth=1
	str	x20, [sp, #240]
Ltmp129:
	mov	w0, #16                         ; =0x10
	bl	__Znwm
Ltmp130:
; %bb.13:                               ;   in Loop: Header=BB5_2 Depth=1
	mov	x3, x0
	str	xzr, [sp, #240]
	stp	x20, x23, [x0]
	str	x0, [sp, #168]
Ltmp132:
	add	x0, sp, #200
	mov	x1, #0                          ; =0x0
Lloh47:
	adrp	x2, __ZNSt3__114__thread_proxyB8ne200100INS_5tupleIJNS_10unique_ptrINS_15__thread_structENS_14default_deleteIS3_EEEEZN10playground12_GLOBAL__N_124sum_and_add_without_lockEvE3$_1NS_17reference_wrapperINS_6vectorIxNS_9allocatorIxEEEEEEEEEEEPvSH_@PAGE
Lloh48:
	add	x2, x2, __ZNSt3__114__thread_proxyB8ne200100INS_5tupleIJNS_10unique_ptrINS_15__thread_structENS_14default_deleteIS3_EEEEZN10playground12_GLOBAL__N_124sum_and_add_without_lockEvE3$_1NS_17reference_wrapperINS_6vectorIxNS_9allocatorIxEEEEEEEEEEEPvSH_@PAGEOFF
	bl	_pthread_create
Ltmp133:
; %bb.14:                               ;   in Loop: Header=BB5_2 Depth=1
	cbnz	w0, LBB5_94
; %bb.15:                               ;   in Loop: Header=BB5_2 Depth=1
	ldr	x8, [sp, #200]
	stp	xzr, x8, [sp, #200]
	add	x0, sp, #200
	bl	__ZNSt3__16threadD1Ev
Ltmp138:
	add	x0, sp, #224
	bl	__ZNSt3__16thread4joinEv
Ltmp139:
; %bb.16:                               ;   in Loop: Header=BB5_2 Depth=1
Ltmp140:
	add	x0, sp, #208
	bl	__ZNSt3__16thread4joinEv
Ltmp141:
; %bb.17:                               ;   in Loop: Header=BB5_2 Depth=1
Ltmp142:
Lloh49:
	adrp	x0, __ZNSt3__14coutE@GOTPAGE
Lloh50:
	ldr	x0, [x0, __ZNSt3__14coutE@GOTPAGEOFF]
Lloh51:
	adrp	x1, l_.str.13@PAGE
Lloh52:
	add	x1, x1, l_.str.13@PAGEOFF
	mov	w2, #13                         ; =0xd
	bl	__ZNSt3__124__put_character_sequenceB8ne200100IcNS_11char_traitsIcEEEERNS_13basic_ostreamIT_T0_EES7_PKS4_m
Ltmp143:
; %bb.18:                               ;   in Loop: Header=BB5_2 Depth=1
	ldr	x1, [sp, #232]
Ltmp144:
	bl	__ZNSt3__113basic_ostreamIcNS_11char_traitsIcEEElsEx
Ltmp145:
; %bb.19:                               ;   in Loop: Header=BB5_2 Depth=1
	mov	x20, x0
	ldr	x8, [x0]
	ldur	x9, [x8, #-24]
Ltmp146:
	add	x8, sp, #240
	add	x0, x0, x9
	bl	__ZNKSt3__18ios_base6getlocEv
Ltmp147:
; %bb.20:                               ;   in Loop: Header=BB5_2 Depth=1
Ltmp148:
	add	x0, sp, #240
Lloh53:
	adrp	x1, __ZNSt3__15ctypeIcE2idE@GOTPAGE
Lloh54:
	ldr	x1, [x1, __ZNSt3__15ctypeIcE2idE@GOTPAGEOFF]
	bl	__ZNKSt3__16locale9use_facetERNS0_2idE
Ltmp149:
; %bb.21:                               ;   in Loop: Header=BB5_2 Depth=1
	ldr	x8, [x0]
	ldr	x8, [x8, #56]
Ltmp150:
	mov	w1, #10                         ; =0xa
	blr	x8
Ltmp151:
; %bb.22:                               ;   in Loop: Header=BB5_2 Depth=1
	mov	x21, x0
	add	x0, sp, #240
	bl	__ZNSt3__16localeD1Ev
Ltmp153:
	mov	x0, x20
	mov	x1, x21
	bl	__ZNSt3__113basic_ostreamIcNS_11char_traitsIcEEE3putEc
Ltmp154:
; %bb.23:                               ;   in Loop: Header=BB5_2 Depth=1
Ltmp155:
	mov	x0, x20
	bl	__ZNSt3__113basic_ostreamIcNS_11char_traitsIcEEE5flushEv
Ltmp156:
; %bb.24:                               ;   in Loop: Header=BB5_2 Depth=1
	ldr	x8, [sp, #208]
	cbz	x8, LBB5_26
; %bb.25:                               ;   in Loop: Header=BB5_2 Depth=1
Ltmp158:
	add	x0, sp, #208
	bl	__ZNSt3__16thread4joinEv
Ltmp159:
LBB5_26:                                ;   in Loop: Header=BB5_2 Depth=1
	add	x0, sp, #208
	bl	__ZNSt3__16threadD1Ev
	ldr	x8, [sp, #224]
	cbz	x8, LBB5_28
; %bb.27:                               ;   in Loop: Header=BB5_2 Depth=1
Ltmp161:
	add	x0, sp, #224
	bl	__ZNSt3__16thread4joinEv
Ltmp162:
LBB5_28:                                ;   in Loop: Header=BB5_2 Depth=1
	add	x0, sp, #224
	bl	__ZNSt3__16threadD1Ev
	ldr	x0, [sp, #280]
	cbz	x0, LBB5_30
; %bb.29:                               ;   in Loop: Header=BB5_2 Depth=1
	str	x0, [sp, #288]
	bl	__ZdlPv
LBB5_30:                                ;   in Loop: Header=BB5_2 Depth=1
	bl	__ZNSt3__16chrono12steady_clock3nowEv
	sub	x8, x0, x28
	str	x8, [sp, #192]
	mov	w9, #15                         ; =0xf
	str	x9, [sp, #256]
	add	x8, sp, #192
	str	x8, [sp, #240]
Lloh55:
	adrp	x8, __ZZNSt3__124__basic_format_arg_valueINS_20basic_format_contextINS_20back_insert_iteratorINS_8__format15__output_bufferIcEEEEcEEE8__handleC1B8ne200100INS_6chrono8durationIxNS_5ratioILl1ELl1000000000EEEEEEERT_ENUlRNS_26basic_format_parse_contextIcEERS7_PKvE_8__invokeESK_SL_SN_@GOTPAGE
Lloh56:
	ldr	x8, [x8, __ZZNSt3__124__basic_format_arg_valueINS_20basic_format_contextINS_20back_insert_iteratorINS_8__format15__output_bufferIcEEEEcEEE8__handleC1B8ne200100INS_6chrono8durationIxNS_5ratioILl1ELl1000000000EEEEEEERT_ENUlRNS_26basic_format_parse_contextIcEERS7_PKvE_8__invokeESK_SL_SN_@GOTPAGEOFF]
	str	x8, [sp, #248]
	ldr	q0, [sp, #96]                   ; 16-byte Folded Reload
	stur	q0, [x23, #8]
	str	x26, [sp, #280]
Lloh57:
	adrp	x8, __ZNSt3__18__format19__allocating_bufferIcE15__prepare_writeB8ne200100ERNS0_15__output_bufferIcEEm@PAGE
Lloh58:
	add	x8, x8, __ZNSt3__18__format19__allocating_bufferIcE15__prepare_writeB8ne200100ERNS0_15__output_bufferIcEEm@PAGEOFF
	stp	x8, xzr, [sp, #304]
	str	x26, [sp, #576]
	mov	w8, #1                          ; =0x1
	str	x8, [sp, #168]
	add	x8, sp, #240
	stp	x8, x9, [sp, #176]
Ltmp164:
	add	x0, sp, #280
	add	x3, sp, #168
Lloh59:
	adrp	x1, l_.str.8@PAGE
Lloh60:
	add	x1, x1, l_.str.8@PAGEOFF
	mov	w2, #8                          ; =0x8
	bl	__ZNSt3__112__vformat_toB8ne200100INS_20back_insert_iteratorINS_8__format15__output_bufferIcEEEEcS5_EET_S6_NS_17basic_string_viewIT0_NS_11char_traitsIS8_EEEENS_17basic_format_argsINS_20basic_format_contextIT1_S8_EEEE
Ltmp165:
; %bb.31:                               ;   in Loop: Header=BB5_2 Depth=1
	ldr	x28, [sp, #296]
	mov	x8, #-9                         ; =0xfffffffffffffff7
	movk	x8, #32767, lsl #48
	cmp	x28, x8
	b.hi	LBB5_96
; %bb.32:                               ;   in Loop: Header=BB5_2 Depth=1
	ldr	x20, [sp, #576]
	cmp	x28, #23
	b.hs	LBB5_86
; %bb.33:                               ;   in Loop: Header=BB5_2 Depth=1
	strb	w28, [sp, #167]
	add	x21, sp, #144
	cbnz	x28, LBB5_88
; %bb.34:                               ;   in Loop: Header=BB5_2 Depth=1
	strb	wzr, [x21, x28]
	ldr	x0, [sp, #576]
	cmp	x0, x26
	b.eq	LBB5_36
LBB5_35:                                ;   in Loop: Header=BB5_2 Depth=1
	bl	__ZdlPv
LBB5_36:                                ;   in Loop: Header=BB5_2 Depth=1
	ldrb	w8, [sp, #167]
	sxtb	w9, w8
	ldp	x10, x11, [sp, #144]
	cmp	w9, #0
	add	x9, sp, #144
	csel	x1, x10, x9, lt
	csel	x2, x11, x8, lt
Ltmp170:
Lloh61:
	adrp	x0, __ZNSt3__14coutE@GOTPAGE
Lloh62:
	ldr	x0, [x0, __ZNSt3__14coutE@GOTPAGEOFF]
	bl	__ZNSt3__124__put_character_sequenceB8ne200100IcNS_11char_traitsIcEEEERNS_13basic_ostreamIT_T0_EES7_PKS4_m
Ltmp171:
; %bb.37:                               ;   in Loop: Header=BB5_2 Depth=1
	mov	x20, x0
	ldr	x8, [x0]
	ldur	x9, [x8, #-24]
Ltmp172:
	add	x8, sp, #280
	add	x0, x0, x9
	bl	__ZNKSt3__18ios_base6getlocEv
Ltmp173:
; %bb.38:                               ;   in Loop: Header=BB5_2 Depth=1
Ltmp174:
	add	x0, sp, #280
Lloh63:
	adrp	x1, __ZNSt3__15ctypeIcE2idE@GOTPAGE
Lloh64:
	ldr	x1, [x1, __ZNSt3__15ctypeIcE2idE@GOTPAGEOFF]
	bl	__ZNKSt3__16locale9use_facetERNS0_2idE
Ltmp175:
; %bb.39:                               ;   in Loop: Header=BB5_2 Depth=1
	ldr	x8, [x0]
	ldr	x8, [x8, #56]
Ltmp176:
	mov	w1, #10                         ; =0xa
	blr	x8
Ltmp177:
; %bb.40:                               ;   in Loop: Header=BB5_2 Depth=1
	mov	x21, x0
	add	x0, sp, #280
	bl	__ZNSt3__16localeD1Ev
Ltmp179:
	mov	x0, x20
	mov	x1, x21
	bl	__ZNSt3__113basic_ostreamIcNS_11char_traitsIcEEE3putEc
Ltmp180:
; %bb.41:                               ;   in Loop: Header=BB5_2 Depth=1
Ltmp181:
	mov	x0, x20
	bl	__ZNSt3__113basic_ostreamIcNS_11char_traitsIcEEE5flushEv
Ltmp182:
; %bb.42:                               ;   in Loop: Header=BB5_2 Depth=1
	ldrsb	w8, [sp, #167]
	tbz	w8, #31, LBB5_44
; %bb.43:                               ;   in Loop: Header=BB5_2 Depth=1
	ldr	x0, [sp, #144]
	bl	__ZdlPv
LBB5_44:                                ;   in Loop: Header=BB5_2 Depth=1
	bl	__ZNSt3__16chrono12steady_clock3nowEv
	mov	x28, x0
Ltmp184:
	mov	x20, #20472                     ; =0x4ff8
	movk	x20, #56534, lsl #16
	movk	x20, #1, lsl #32
	mov	x0, x20
	bl	__Znwm
Ltmp185:
; %bb.45:                               ;   in Loop: Header=BB5_2 Depth=1
	mov	x8, #20416                      ; =0x4fc0
	movk	x8, #56534, lsl #16
	movk	x8, #1, lsl #32
	add	x8, x0, x8
	add	x9, x0, x20
	str	x0, [sp, #240]
	str	x9, [sp, #256]
	add	x9, x0, #32
	mov	w10, #51704                     ; =0xc9f8
	movk	w10, #15258, lsl #16
	ldr	q0, [sp, #112]                  ; 16-byte Folded Reload
LBB5_46:                                ;   Parent Loop BB5_2 Depth=1
                                        ; =>  This Inner Loop Header: Depth=2
	dup.2d	v1, x24
	add.2d	v1, v0, v1
	dup.2d	v2, x19
	add.2d	v2, v0, v2
	dup.2d	v3, x25
	add.2d	v3, v0, v3
	stp	q0, q1, [x9, #-32]
	stp	q2, q3, [x9], #64
	dup.2d	v1, x27
	add.2d	v0, v0, v1
	subs	x10, x10, #8
	b.ne	LBB5_46
; %bb.47:                               ;   in Loop: Header=BB5_2 Depth=1
	add	x9, x22, #1
	add	x10, x22, #2
	stp	x9, x10, [x8]
	add	x9, x22, #3
	add	x10, x22, #4
	stp	x9, x10, [x8, #16]
	add	x9, x22, #5
	add	x10, x22, #6
	stp	x9, x10, [x8, #32]
	add	x9, x22, #7
	str	x9, [x8, #48]
	add	x8, x0, x20
	str	x8, [sp, #248]
	str	xzr, [sp, #224]
	mov	w8, #43943                      ; =0xaba7
	movk	w8, #12970, lsl #16
	str	x8, [sp, #280]
	add	x8, sp, #280
	movi.2d	v0, #0000000000000000
	stur	q0, [x8, #8]
	stur	q0, [x8, #24]
	stur	q0, [x8, #40]
	add	x23, sp, #280
	stur	xzr, [x8, #56]
Ltmp187:
	mov	w0, #8                          ; =0x8
	bl	__Znwm
Ltmp188:
; %bb.48:                               ;   in Loop: Header=BB5_2 Depth=1
Ltmp190:
	mov	x20, x0
	bl	__ZNSt3__115__thread_structC1Ev
Ltmp191:
; %bb.49:                               ;   in Loop: Header=BB5_2 Depth=1
	str	x20, [sp, #168]
Ltmp193:
	mov	w0, #32                         ; =0x20
	bl	__Znwm
Ltmp194:
; %bb.50:                               ;   in Loop: Header=BB5_2 Depth=1
	mov	x3, x0
	str	xzr, [sp, #168]
	stp	x20, x23, [x0]
	add	x8, sp, #240
	str	x8, [x0, #16]
	add	x8, sp, #224
	str	x8, [x0, #24]
	str	x0, [sp, #232]
Ltmp196:
	add	x0, sp, #208
	mov	x1, #0                          ; =0x0
Lloh65:
	adrp	x2, __ZNSt3__114__thread_proxyB8ne200100INS_5tupleIJNS_10unique_ptrINS_15__thread_structENS_14default_deleteIS3_EEEEZN10playground12_GLOBAL__N_121sum_and_add_with_lockEvE3$_0NS_17reference_wrapperINS_6vectorIxNS_9allocatorIxEEEEEENSA_IxEEEEEEEPvSI_@PAGE
Lloh66:
	add	x2, x2, __ZNSt3__114__thread_proxyB8ne200100INS_5tupleIJNS_10unique_ptrINS_15__thread_structENS_14default_deleteIS3_EEEEZN10playground12_GLOBAL__N_121sum_and_add_with_lockEvE3$_0NS_17reference_wrapperINS_6vectorIxNS_9allocatorIxEEEEEENSA_IxEEEEEEEPvSI_@PAGEOFF
	bl	_pthread_create
Ltmp197:
; %bb.51:                               ;   in Loop: Header=BB5_2 Depth=1
	cbnz	w0, LBB5_98
; %bb.52:                               ;   in Loop: Header=BB5_2 Depth=1
	ldr	x8, [sp, #208]
	stp	xzr, x8, [sp, #208]
	add	x0, sp, #208
	bl	__ZNSt3__16threadD1Ev
Ltmp202:
	mov	w0, #8                          ; =0x8
	bl	__Znwm
Ltmp203:
; %bb.53:                               ;   in Loop: Header=BB5_2 Depth=1
Ltmp205:
	mov	x20, x0
	bl	__ZNSt3__115__thread_structC1Ev
Ltmp206:
; %bb.54:                               ;   in Loop: Header=BB5_2 Depth=1
	str	x20, [sp, #168]
Ltmp208:
	mov	w0, #24                         ; =0x18
	bl	__Znwm
Ltmp209:
; %bb.55:                               ;   in Loop: Header=BB5_2 Depth=1
	mov	x3, x0
	str	xzr, [sp, #168]
	stp	x20, x23, [x0]
	add	x8, sp, #240
	str	x8, [x0, #16]
	str	x0, [sp, #232]
Ltmp211:
	add	x0, sp, #192
	mov	x1, #0                          ; =0x0
Lloh67:
	adrp	x2, __ZNSt3__114__thread_proxyB8ne200100INS_5tupleIJNS_10unique_ptrINS_15__thread_structENS_14default_deleteIS3_EEEEZN10playground12_GLOBAL__N_121sum_and_add_with_lockEvE3$_1NS_17reference_wrapperINS_6vectorIxNS_9allocatorIxEEEEEEEEEEEPvSH_@PAGE
Lloh68:
	add	x2, x2, __ZNSt3__114__thread_proxyB8ne200100INS_5tupleIJNS_10unique_ptrINS_15__thread_structENS_14default_deleteIS3_EEEEZN10playground12_GLOBAL__N_121sum_and_add_with_lockEvE3$_1NS_17reference_wrapperINS_6vectorIxNS_9allocatorIxEEEEEEEEEEEPvSH_@PAGEOFF
	bl	_pthread_create
Ltmp212:
; %bb.56:                               ;   in Loop: Header=BB5_2 Depth=1
	cbnz	w0, LBB5_97
; %bb.57:                               ;   in Loop: Header=BB5_2 Depth=1
	ldr	x8, [sp, #192]
	stp	xzr, x8, [sp, #192]
	add	x0, sp, #192
	bl	__ZNSt3__16threadD1Ev
Ltmp217:
	add	x0, sp, #216
	bl	__ZNSt3__16thread4joinEv
Ltmp218:
; %bb.58:                               ;   in Loop: Header=BB5_2 Depth=1
Ltmp219:
	add	x0, sp, #200
	bl	__ZNSt3__16thread4joinEv
Ltmp220:
; %bb.59:                               ;   in Loop: Header=BB5_2 Depth=1
Ltmp221:
Lloh69:
	adrp	x0, __ZNSt3__14coutE@GOTPAGE
Lloh70:
	ldr	x0, [x0, __ZNSt3__14coutE@GOTPAGEOFF]
Lloh71:
	adrp	x1, l_.str.13@PAGE
Lloh72:
	add	x1, x1, l_.str.13@PAGEOFF
	mov	w2, #13                         ; =0xd
	bl	__ZNSt3__124__put_character_sequenceB8ne200100IcNS_11char_traitsIcEEEERNS_13basic_ostreamIT_T0_EES7_PKS4_m
Ltmp222:
; %bb.60:                               ;   in Loop: Header=BB5_2 Depth=1
	ldr	x1, [sp, #224]
Ltmp223:
	bl	__ZNSt3__113basic_ostreamIcNS_11char_traitsIcEEElsEx
Ltmp224:
; %bb.61:                               ;   in Loop: Header=BB5_2 Depth=1
	mov	x20, x0
	ldr	x8, [x0]
	ldur	x9, [x8, #-24]
Ltmp225:
	add	x8, sp, #168
	add	x0, x0, x9
	bl	__ZNKSt3__18ios_base6getlocEv
Ltmp226:
; %bb.62:                               ;   in Loop: Header=BB5_2 Depth=1
Ltmp227:
	add	x0, sp, #168
Lloh73:
	adrp	x1, __ZNSt3__15ctypeIcE2idE@GOTPAGE
Lloh74:
	ldr	x1, [x1, __ZNSt3__15ctypeIcE2idE@GOTPAGEOFF]
	bl	__ZNKSt3__16locale9use_facetERNS0_2idE
Ltmp228:
; %bb.63:                               ;   in Loop: Header=BB5_2 Depth=1
	ldr	x8, [x0]
	ldr	x8, [x8, #56]
Ltmp229:
	mov	w1, #10                         ; =0xa
	blr	x8
Ltmp230:
; %bb.64:                               ;   in Loop: Header=BB5_2 Depth=1
	mov	x21, x0
	add	x0, sp, #168
	bl	__ZNSt3__16localeD1Ev
Ltmp232:
	mov	x0, x20
	mov	x1, x21
	bl	__ZNSt3__113basic_ostreamIcNS_11char_traitsIcEEE3putEc
Ltmp233:
; %bb.65:                               ;   in Loop: Header=BB5_2 Depth=1
Ltmp234:
	mov	x0, x20
	bl	__ZNSt3__113basic_ostreamIcNS_11char_traitsIcEEE5flushEv
Ltmp235:
; %bb.66:                               ;   in Loop: Header=BB5_2 Depth=1
	ldr	x8, [sp, #200]
	cbz	x8, LBB5_68
; %bb.67:                               ;   in Loop: Header=BB5_2 Depth=1
Ltmp237:
	add	x0, sp, #200
	bl	__ZNSt3__16thread4joinEv
Ltmp238:
LBB5_68:                                ;   in Loop: Header=BB5_2 Depth=1
	add	x0, sp, #200
	bl	__ZNSt3__16threadD1Ev
	ldr	x8, [sp, #216]
	cbz	x8, LBB5_70
; %bb.69:                               ;   in Loop: Header=BB5_2 Depth=1
Ltmp240:
	add	x0, sp, #216
	bl	__ZNSt3__16thread4joinEv
Ltmp241:
LBB5_70:                                ;   in Loop: Header=BB5_2 Depth=1
	add	x0, sp, #216
	bl	__ZNSt3__16threadD1Ev
	add	x0, sp, #280
	bl	__ZNSt3__15mutexD1Ev
	ldr	x0, [sp, #240]
	cbz	x0, LBB5_72
; %bb.71:                               ;   in Loop: Header=BB5_2 Depth=1
	str	x0, [sp, #248]
	bl	__ZdlPv
LBB5_72:                                ;   in Loop: Header=BB5_2 Depth=1
	bl	__ZNSt3__16chrono12steady_clock3nowEv
	sub	x8, x0, x28
	str	x8, [sp, #136]
	mov	w9, #15                         ; =0xf
	str	x9, [sp, #256]
	add	x8, sp, #136
	str	x8, [sp, #240]
Lloh75:
	adrp	x8, __ZZNSt3__124__basic_format_arg_valueINS_20basic_format_contextINS_20back_insert_iteratorINS_8__format15__output_bufferIcEEEEcEEE8__handleC1B8ne200100INS_6chrono8durationIxNS_5ratioILl1ELl1000000000EEEEEEERT_ENUlRNS_26basic_format_parse_contextIcEERS7_PKvE_8__invokeESK_SL_SN_@GOTPAGE
Lloh76:
	ldr	x8, [x8, __ZZNSt3__124__basic_format_arg_valueINS_20basic_format_contextINS_20back_insert_iteratorINS_8__format15__output_bufferIcEEEEcEEE8__handleC1B8ne200100INS_6chrono8durationIxNS_5ratioILl1ELl1000000000EEEEEEERT_ENUlRNS_26basic_format_parse_contextIcEERS7_PKvE_8__invokeESK_SL_SN_@GOTPAGEOFF]
	str	x8, [sp, #248]
	ldr	q0, [sp, #96]                   ; 16-byte Folded Reload
	stur	q0, [x23, #8]
	str	x26, [sp, #280]
Lloh77:
	adrp	x8, __ZNSt3__18__format19__allocating_bufferIcE15__prepare_writeB8ne200100ERNS0_15__output_bufferIcEEm@PAGE
Lloh78:
	add	x8, x8, __ZNSt3__18__format19__allocating_bufferIcE15__prepare_writeB8ne200100ERNS0_15__output_bufferIcEEm@PAGEOFF
	stp	x8, xzr, [sp, #304]
	str	x26, [sp, #576]
	mov	w8, #1                          ; =0x1
	str	x8, [sp, #168]
	add	x8, sp, #240
	stp	x8, x9, [sp, #176]
Ltmp243:
	add	x0, sp, #280
	add	x3, sp, #168
Lloh79:
	adrp	x1, l_.str.8@PAGE
Lloh80:
	add	x1, x1, l_.str.8@PAGEOFF
	mov	w2, #8                          ; =0x8
	bl	__ZNSt3__112__vformat_toB8ne200100INS_20back_insert_iteratorINS_8__format15__output_bufferIcEEEEcS5_EET_S6_NS_17basic_string_viewIT0_NS_11char_traitsIS8_EEEENS_17basic_format_argsINS_20basic_format_contextIT1_S8_EEEE
Ltmp244:
; %bb.73:                               ;   in Loop: Header=BB5_2 Depth=1
	ldr	x28, [sp, #296]
	mov	x8, #-9                         ; =0xfffffffffffffff7
	movk	x8, #32767, lsl #48
	cmp	x28, x8
	b.hi	LBB5_99
; %bb.74:                               ;   in Loop: Header=BB5_2 Depth=1
	ldr	x20, [sp, #576]
	cmp	x28, #23
	b.hs	LBB5_89
; %bb.75:                               ;   in Loop: Header=BB5_2 Depth=1
	strb	w28, [sp, #167]
	add	x21, sp, #144
	cbnz	x28, LBB5_91
; %bb.76:                               ;   in Loop: Header=BB5_2 Depth=1
	strb	wzr, [x21, x28]
	ldr	x0, [sp, #576]
	cmp	x0, x26
	b.eq	LBB5_78
LBB5_77:                                ;   in Loop: Header=BB5_2 Depth=1
	bl	__ZdlPv
LBB5_78:                                ;   in Loop: Header=BB5_2 Depth=1
	ldrb	w8, [sp, #167]
	sxtb	w9, w8
	ldp	x10, x11, [sp, #144]
	cmp	w9, #0
	add	x9, sp, #144
	csel	x1, x10, x9, lt
	csel	x2, x11, x8, lt
Ltmp249:
Lloh81:
	adrp	x0, __ZNSt3__14coutE@GOTPAGE
Lloh82:
	ldr	x0, [x0, __ZNSt3__14coutE@GOTPAGEOFF]
	bl	__ZNSt3__124__put_character_sequenceB8ne200100IcNS_11char_traitsIcEEEERNS_13basic_ostreamIT_T0_EES7_PKS4_m
Ltmp250:
	ldr	w28, [sp, #92]                  ; 4-byte Folded Reload
; %bb.79:                               ;   in Loop: Header=BB5_2 Depth=1
	mov	x20, x0
	ldr	x8, [x0]
	ldur	x9, [x8, #-24]
Ltmp251:
	add	x8, sp, #280
	add	x0, x0, x9
	bl	__ZNKSt3__18ios_base6getlocEv
Ltmp252:
; %bb.80:                               ;   in Loop: Header=BB5_2 Depth=1
Ltmp253:
	add	x0, sp, #280
Lloh83:
	adrp	x1, __ZNSt3__15ctypeIcE2idE@GOTPAGE
Lloh84:
	ldr	x1, [x1, __ZNSt3__15ctypeIcE2idE@GOTPAGEOFF]
	bl	__ZNKSt3__16locale9use_facetERNS0_2idE
Ltmp254:
; %bb.81:                               ;   in Loop: Header=BB5_2 Depth=1
	ldr	x8, [x0]
	ldr	x8, [x8, #56]
Ltmp255:
	mov	w1, #10                         ; =0xa
	blr	x8
Ltmp256:
; %bb.82:                               ;   in Loop: Header=BB5_2 Depth=1
	mov	x21, x0
	add	x0, sp, #280
	bl	__ZNSt3__16localeD1Ev
Ltmp258:
	mov	x0, x20
	mov	x1, x21
	bl	__ZNSt3__113basic_ostreamIcNS_11char_traitsIcEEE3putEc
Ltmp259:
; %bb.83:                               ;   in Loop: Header=BB5_2 Depth=1
Ltmp260:
	mov	x0, x20
	bl	__ZNSt3__113basic_ostreamIcNS_11char_traitsIcEEE5flushEv
Ltmp261:
; %bb.84:                               ;   in Loop: Header=BB5_2 Depth=1
	ldrsb	w8, [sp, #167]
	tbz	w8, #31, LBB5_1
; %bb.85:                               ;   in Loop: Header=BB5_2 Depth=1
	ldr	x0, [sp, #144]
	bl	__ZdlPv
	b	LBB5_1
LBB5_86:                                ;   in Loop: Header=BB5_2 Depth=1
	orr	x8, x28, #0x7
	cmp	x8, #23
	mov	w9, #25                         ; =0x19
	csinc	x26, x9, x8, eq
Ltmp167:
	mov	x0, x26
	bl	__Znwm
Ltmp168:
; %bb.87:                               ;   in Loop: Header=BB5_2 Depth=1
	mov	x21, x0
	orr	x8, x26, #0x8000000000000000
	stp	x28, x8, [sp, #152]
	str	x0, [sp, #144]
	ldr	x26, [sp, #8]                   ; 8-byte Folded Reload
LBB5_88:                                ;   in Loop: Header=BB5_2 Depth=1
	mov	x0, x21
	mov	x1, x20
	mov	x2, x28
	bl	_memmove
	strb	wzr, [x21, x28]
	ldr	x0, [sp, #576]
	cmp	x0, x26
	b.ne	LBB5_35
	b	LBB5_36
LBB5_89:                                ;   in Loop: Header=BB5_2 Depth=1
	orr	x8, x28, #0x7
	cmp	x8, #23
	mov	w9, #25                         ; =0x19
	csinc	x26, x9, x8, eq
Ltmp246:
	mov	x0, x26
	bl	__Znwm
Ltmp247:
; %bb.90:                               ;   in Loop: Header=BB5_2 Depth=1
	mov	x21, x0
	orr	x8, x26, #0x8000000000000000
	stp	x28, x8, [sp, #152]
	str	x0, [sp, #144]
	ldr	x26, [sp, #8]                   ; 8-byte Folded Reload
LBB5_91:                                ;   in Loop: Header=BB5_2 Depth=1
	mov	x0, x21
	mov	x1, x20
	mov	x2, x28
	bl	_memmove
	strb	wzr, [x21, x28]
	ldr	x0, [sp, #576]
	cmp	x0, x26
	b.ne	LBB5_77
	b	LBB5_78
LBB5_92:
	ldur	x8, [x29, #-104]
Lloh85:
	adrp	x9, ___stack_chk_guard@GOTPAGE
Lloh86:
	ldr	x9, [x9, ___stack_chk_guard@GOTPAGEOFF]
Lloh87:
	ldr	x9, [x9]
	cmp	x9, x8
	b.ne	LBB5_101
; %bb.93:
	add	sp, sp, #608
	ldp	x29, x30, [sp, #80]             ; 16-byte Folded Reload
	ldp	x20, x19, [sp, #64]             ; 16-byte Folded Reload
	ldp	x22, x21, [sp, #48]             ; 16-byte Folded Reload
	ldp	x24, x23, [sp, #32]             ; 16-byte Folded Reload
	ldp	x26, x25, [sp, #16]             ; 16-byte Folded Reload
	ldp	x28, x27, [sp], #96             ; 16-byte Folded Reload
	ret
LBB5_94:
Ltmp135:
Lloh88:
	adrp	x1, l_.str.14@PAGE
Lloh89:
	add	x1, x1, l_.str.14@PAGEOFF
	bl	__ZNSt3__120__throw_system_errorEiPKc
Ltmp136:
	b	LBB5_100
LBB5_95:
Ltmp120:
Lloh90:
	adrp	x1, l_.str.14@PAGE
Lloh91:
	add	x1, x1, l_.str.14@PAGEOFF
	bl	__ZNSt3__120__throw_system_errorEiPKc
Ltmp121:
	b	LBB5_100
LBB5_96:
Ltmp266:
	bl	__ZNSt3__112basic_stringIcNS_11char_traitsIcEENS_9allocatorIcEEE20__throw_length_errorB8ne200100Ev
Ltmp267:
	b	LBB5_100
LBB5_97:
Ltmp214:
Lloh92:
	adrp	x1, l_.str.14@PAGE
Lloh93:
	add	x1, x1, l_.str.14@PAGEOFF
	bl	__ZNSt3__120__throw_system_errorEiPKc
Ltmp215:
	b	LBB5_100
LBB5_98:
Ltmp199:
Lloh94:
	adrp	x1, l_.str.14@PAGE
Lloh95:
	add	x1, x1, l_.str.14@PAGEOFF
	bl	__ZNSt3__120__throw_system_errorEiPKc
Ltmp200:
	b	LBB5_100
LBB5_99:
Ltmp263:
	bl	__ZNSt3__112basic_stringIcNS_11char_traitsIcEENS_9allocatorIcEEE20__throw_length_errorB8ne200100Ev
Ltmp264:
LBB5_100:
	brk	#0x1
LBB5_101:
	bl	___stack_chk_fail
LBB5_102:
Ltmp248:
	b	LBB5_128
LBB5_103:
Ltmp169:
	b	LBB5_128
LBB5_104:
Ltmp239:
	b	LBB5_108
LBB5_105:
Ltmp242:
	b	LBB5_108
LBB5_106:
Ltmp160:
	b	LBB5_108
LBB5_107:
Ltmp163:
LBB5_108:
	mov	x19, x0
	cbz	w1, LBB5_164
; %bb.109:
	mov	x0, x19
	bl	___clang_call_terminate
LBB5_110:
Ltmp265:
	b	LBB5_128
LBB5_111:
Ltmp245:
	b	LBB5_128
LBB5_112:
Ltmp166:
	b	LBB5_128
LBB5_113:
Ltmp189:
	mov	x19, x0
	b	LBB5_158
LBB5_114:
Ltmp192:
	mov	x19, x0
	mov	x0, x20
	bl	__ZdlPv
	b	LBB5_158
LBB5_115:
Ltmp195:
	mov	x19, x0
	b	LBB5_119
LBB5_116:
Ltmp198:
	b	LBB5_118
LBB5_117:
Ltmp201:
LBB5_118:
	mov	x19, x0
	add	x0, sp, #232
	bl	__ZNSt3__110unique_ptrINS_5tupleIJNS0_INS_15__thread_structENS_14default_deleteIS2_EEEEZN10playground12_GLOBAL__N_121sum_and_add_with_lockEvE3$_0NS_17reference_wrapperINS_6vectorIxNS_9allocatorIxEEEEEENS9_IxEEEEENS3_ISG_EEED1B8ne200100Ev
LBB5_119:
	add	x0, sp, #168
	bl	__ZNSt3__110unique_ptrINS_15__thread_structENS_14default_deleteIS1_EEED1B8ne200100Ev
	b	LBB5_158
LBB5_120:
Ltmp204:
	mov	x19, x0
	b	LBB5_157
LBB5_121:
Ltmp207:
	mov	x19, x0
	mov	x0, x20
	bl	__ZdlPv
	b	LBB5_157
LBB5_122:
Ltmp210:
	mov	x19, x0
	b	LBB5_126
LBB5_123:
Ltmp213:
	b	LBB5_125
LBB5_124:
Ltmp216:
LBB5_125:
	mov	x19, x0
	add	x0, sp, #232
	bl	__ZNSt3__110unique_ptrINS_5tupleIJNS0_INS_15__thread_structENS_14default_deleteIS2_EEEEZN10playground12_GLOBAL__N_121sum_and_add_with_lockEvE3$_1NS_17reference_wrapperINS_6vectorIxNS_9allocatorIxEEEEEEEEENS3_ISF_EEED1B8ne200100Ev
LBB5_126:
	add	x0, sp, #168
	bl	__ZNSt3__110unique_ptrINS_15__thread_structENS_14default_deleteIS1_EEED1B8ne200100Ev
	b	LBB5_157
LBB5_127:
Ltmp268:
LBB5_128:
	mov	x19, x0
	ldr	x0, [sp, #576]
	ldr	x8, [sp, #8]                    ; 8-byte Folded Reload
	cmp	x0, x8
	b.eq	LBB5_164
; %bb.129:
	bl	__ZdlPv
	mov	x0, x19
	bl	__Unwind_Resume
LBB5_130:
Ltmp110:
	mov	x19, x0
	b	LBB5_163
LBB5_131:
Ltmp113:
	mov	x19, x0
	mov	x0, x20
	bl	__ZdlPv
	b	LBB5_163
LBB5_132:
Ltmp116:
	mov	x19, x0
	b	LBB5_136
LBB5_133:
Ltmp119:
	b	LBB5_135
LBB5_134:
Ltmp122:
LBB5_135:
	mov	x19, x0
	add	x0, sp, #168
	bl	__ZNSt3__110unique_ptrINS_5tupleIJNS0_INS_15__thread_structENS_14default_deleteIS2_EEEEZN10playground12_GLOBAL__N_124sum_and_add_without_lockEvE3$_0NS_17reference_wrapperINS_6vectorIxNS_9allocatorIxEEEEEENS9_IxEEEEENS3_ISG_EEED1B8ne200100Ev
LBB5_136:
	add	x0, sp, #240
	bl	__ZNSt3__110unique_ptrINS_15__thread_structENS_14default_deleteIS1_EEED1B8ne200100Ev
	b	LBB5_163
LBB5_137:
Ltmp125:
	mov	x19, x0
	b	LBB5_162
LBB5_138:
Ltmp128:
	mov	x19, x0
	mov	x0, x20
	bl	__ZdlPv
	b	LBB5_162
LBB5_139:
Ltmp131:
	mov	x19, x0
	b	LBB5_143
LBB5_140:
Ltmp134:
	b	LBB5_142
LBB5_141:
Ltmp137:
LBB5_142:
	mov	x19, x0
	add	x0, sp, #168
	bl	__ZNSt3__110unique_ptrINS_5tupleIJNS0_INS_15__thread_structENS_14default_deleteIS2_EEEEZN10playground12_GLOBAL__N_124sum_and_add_without_lockEvE3$_1NS_17reference_wrapperINS_6vectorIxNS_9allocatorIxEEEEEEEEENS3_ISF_EEED1B8ne200100Ev
LBB5_143:
	add	x0, sp, #240
	bl	__ZNSt3__110unique_ptrINS_15__thread_structENS_14default_deleteIS1_EEED1B8ne200100Ev
	b	LBB5_162
LBB5_144:
Ltmp231:
	mov	x19, x0
	add	x0, sp, #168
	bl	__ZNSt3__16localeD1Ev
	b	LBB5_156
LBB5_145:
Ltmp257:
	b	LBB5_147
LBB5_146:
Ltmp178:
LBB5_147:
	mov	x19, x0
	add	x0, sp, #280
	bl	__ZNSt3__16localeD1Ev
	b	LBB5_153
LBB5_148:
Ltmp152:
	mov	x19, x0
	add	x0, sp, #240
	bl	__ZNSt3__16localeD1Ev
	b	LBB5_161
LBB5_149:
Ltmp186:
	bl	__Unwind_Resume
LBB5_150:
Ltmp262:
	b	LBB5_152
LBB5_151:
Ltmp183:
LBB5_152:
	mov	x19, x0
LBB5_153:
	ldrsb	w8, [sp, #167]
	tbz	w8, #31, LBB5_164
; %bb.154:
	ldr	x0, [sp, #144]
	bl	__ZdlPv
	mov	x0, x19
	bl	__Unwind_Resume
LBB5_155:
Ltmp236:
	mov	x19, x0
LBB5_156:
	add	x0, sp, #200
	bl	__ZN10playground14guarded_threadD1Ev
LBB5_157:
	add	x0, sp, #216
	bl	__ZN10playground14guarded_threadD1Ev
LBB5_158:
	add	x0, sp, #280
	bl	__ZNSt3__15mutexD1Ev
	ldr	x0, [sp, #240]
	cbz	x0, LBB5_164
; %bb.159:
	str	x0, [sp, #248]
	bl	__ZdlPv
	mov	x0, x19
	bl	__Unwind_Resume
LBB5_160:
Ltmp157:
	mov	x19, x0
LBB5_161:
	add	x0, sp, #208
	bl	__ZN10playground14guarded_threadD1Ev
LBB5_162:
	add	x0, sp, #224
	bl	__ZN10playground14guarded_threadD1Ev
LBB5_163:
	ldr	x0, [sp, #280]
	cbnz	x0, LBB5_165
LBB5_164:
	mov	x0, x19
	bl	__Unwind_Resume
LBB5_165:
	str	x0, [sp, #288]
	bl	__ZdlPv
	mov	x0, x19
	bl	__Unwind_Resume
	.loh AdrpLdr	Lloh43, Lloh44
	.loh AdrpAdrp	Lloh41, Lloh43
	.loh AdrpLdr	Lloh41, Lloh42
	.loh AdrpLdrGotLdr	Lloh38, Lloh39, Lloh40
	.loh AdrpAdd	Lloh45, Lloh46
	.loh AdrpAdd	Lloh47, Lloh48
	.loh AdrpAdd	Lloh51, Lloh52
	.loh AdrpLdrGot	Lloh49, Lloh50
	.loh AdrpLdrGot	Lloh53, Lloh54
	.loh AdrpAdd	Lloh59, Lloh60
	.loh AdrpAdd	Lloh57, Lloh58
	.loh AdrpLdrGot	Lloh55, Lloh56
	.loh AdrpLdrGot	Lloh61, Lloh62
	.loh AdrpLdrGot	Lloh63, Lloh64
	.loh AdrpAdd	Lloh65, Lloh66
	.loh AdrpAdd	Lloh67, Lloh68
	.loh AdrpAdd	Lloh71, Lloh72
	.loh AdrpLdrGot	Lloh69, Lloh70
	.loh AdrpLdrGot	Lloh73, Lloh74
	.loh AdrpAdd	Lloh79, Lloh80
	.loh AdrpAdd	Lloh77, Lloh78
	.loh AdrpLdrGot	Lloh75, Lloh76
	.loh AdrpLdrGot	Lloh81, Lloh82
	.loh AdrpLdrGot	Lloh83, Lloh84
	.loh AdrpLdrGotLdr	Lloh85, Lloh86, Lloh87
	.loh AdrpAdd	Lloh88, Lloh89
	.loh AdrpAdd	Lloh90, Lloh91
	.loh AdrpAdd	Lloh92, Lloh93
	.loh AdrpAdd	Lloh94, Lloh95
Lfunc_end4:
	.cfi_endproc
	.section	__TEXT,__gcc_except_tab
	.p2align	2, 0x0
GCC_except_table5:
Lexception4:
	.byte	255                             ; @LPStart Encoding = omit
	.byte	155                             ; @TType Encoding = indirect pcrel sdata4
	.uleb128 Lttbase4-Lttbaseref4
Lttbaseref4:
	.byte	1                               ; Call site Encoding = uleb128
	.uleb128 Lcst_end4-Lcst_begin4
Lcst_begin4:
	.uleb128 Ltmp106-Lfunc_begin4           ; >> Call Site 1 <<
	.uleb128 Ltmp107-Ltmp106                ;   Call between Ltmp106 and Ltmp107
	.uleb128 Ltmp186-Lfunc_begin4           ;     jumps to Ltmp186
	.byte	0                               ;   On action: cleanup
	.uleb128 Ltmp108-Lfunc_begin4           ; >> Call Site 2 <<
	.uleb128 Ltmp109-Ltmp108                ;   Call between Ltmp108 and Ltmp109
	.uleb128 Ltmp110-Lfunc_begin4           ;     jumps to Ltmp110
	.byte	0                               ;   On action: cleanup
	.uleb128 Ltmp111-Lfunc_begin4           ; >> Call Site 3 <<
	.uleb128 Ltmp112-Ltmp111                ;   Call between Ltmp111 and Ltmp112
	.uleb128 Ltmp113-Lfunc_begin4           ;     jumps to Ltmp113
	.byte	0                               ;   On action: cleanup
	.uleb128 Ltmp114-Lfunc_begin4           ; >> Call Site 4 <<
	.uleb128 Ltmp115-Ltmp114                ;   Call between Ltmp114 and Ltmp115
	.uleb128 Ltmp116-Lfunc_begin4           ;     jumps to Ltmp116
	.byte	0                               ;   On action: cleanup
	.uleb128 Ltmp117-Lfunc_begin4           ; >> Call Site 5 <<
	.uleb128 Ltmp118-Ltmp117                ;   Call between Ltmp117 and Ltmp118
	.uleb128 Ltmp119-Lfunc_begin4           ;     jumps to Ltmp119
	.byte	0                               ;   On action: cleanup
	.uleb128 Ltmp123-Lfunc_begin4           ; >> Call Site 6 <<
	.uleb128 Ltmp124-Ltmp123                ;   Call between Ltmp123 and Ltmp124
	.uleb128 Ltmp125-Lfunc_begin4           ;     jumps to Ltmp125
	.byte	0                               ;   On action: cleanup
	.uleb128 Ltmp126-Lfunc_begin4           ; >> Call Site 7 <<
	.uleb128 Ltmp127-Ltmp126                ;   Call between Ltmp126 and Ltmp127
	.uleb128 Ltmp128-Lfunc_begin4           ;     jumps to Ltmp128
	.byte	0                               ;   On action: cleanup
	.uleb128 Ltmp129-Lfunc_begin4           ; >> Call Site 8 <<
	.uleb128 Ltmp130-Ltmp129                ;   Call between Ltmp129 and Ltmp130
	.uleb128 Ltmp131-Lfunc_begin4           ;     jumps to Ltmp131
	.byte	0                               ;   On action: cleanup
	.uleb128 Ltmp132-Lfunc_begin4           ; >> Call Site 9 <<
	.uleb128 Ltmp133-Ltmp132                ;   Call between Ltmp132 and Ltmp133
	.uleb128 Ltmp134-Lfunc_begin4           ;     jumps to Ltmp134
	.byte	0                               ;   On action: cleanup
	.uleb128 Ltmp138-Lfunc_begin4           ; >> Call Site 10 <<
	.uleb128 Ltmp147-Ltmp138                ;   Call between Ltmp138 and Ltmp147
	.uleb128 Ltmp157-Lfunc_begin4           ;     jumps to Ltmp157
	.byte	0                               ;   On action: cleanup
	.uleb128 Ltmp148-Lfunc_begin4           ; >> Call Site 11 <<
	.uleb128 Ltmp151-Ltmp148                ;   Call between Ltmp148 and Ltmp151
	.uleb128 Ltmp152-Lfunc_begin4           ;     jumps to Ltmp152
	.byte	0                               ;   On action: cleanup
	.uleb128 Ltmp153-Lfunc_begin4           ; >> Call Site 12 <<
	.uleb128 Ltmp156-Ltmp153                ;   Call between Ltmp153 and Ltmp156
	.uleb128 Ltmp157-Lfunc_begin4           ;     jumps to Ltmp157
	.byte	0                               ;   On action: cleanup
	.uleb128 Ltmp158-Lfunc_begin4           ; >> Call Site 13 <<
	.uleb128 Ltmp159-Ltmp158                ;   Call between Ltmp158 and Ltmp159
	.uleb128 Ltmp160-Lfunc_begin4           ;     jumps to Ltmp160
	.byte	5                               ;   On action: 3
	.uleb128 Ltmp161-Lfunc_begin4           ; >> Call Site 14 <<
	.uleb128 Ltmp162-Ltmp161                ;   Call between Ltmp161 and Ltmp162
	.uleb128 Ltmp163-Lfunc_begin4           ;     jumps to Ltmp163
	.byte	5                               ;   On action: 3
	.uleb128 Ltmp164-Lfunc_begin4           ; >> Call Site 15 <<
	.uleb128 Ltmp165-Ltmp164                ;   Call between Ltmp164 and Ltmp165
	.uleb128 Ltmp166-Lfunc_begin4           ;     jumps to Ltmp166
	.byte	0                               ;   On action: cleanup
	.uleb128 Ltmp170-Lfunc_begin4           ; >> Call Site 16 <<
	.uleb128 Ltmp173-Ltmp170                ;   Call between Ltmp170 and Ltmp173
	.uleb128 Ltmp183-Lfunc_begin4           ;     jumps to Ltmp183
	.byte	0                               ;   On action: cleanup
	.uleb128 Ltmp174-Lfunc_begin4           ; >> Call Site 17 <<
	.uleb128 Ltmp177-Ltmp174                ;   Call between Ltmp174 and Ltmp177
	.uleb128 Ltmp178-Lfunc_begin4           ;     jumps to Ltmp178
	.byte	0                               ;   On action: cleanup
	.uleb128 Ltmp179-Lfunc_begin4           ; >> Call Site 18 <<
	.uleb128 Ltmp182-Ltmp179                ;   Call between Ltmp179 and Ltmp182
	.uleb128 Ltmp183-Lfunc_begin4           ;     jumps to Ltmp183
	.byte	0                               ;   On action: cleanup
	.uleb128 Ltmp184-Lfunc_begin4           ; >> Call Site 19 <<
	.uleb128 Ltmp185-Ltmp184                ;   Call between Ltmp184 and Ltmp185
	.uleb128 Ltmp186-Lfunc_begin4           ;     jumps to Ltmp186
	.byte	0                               ;   On action: cleanup
	.uleb128 Ltmp187-Lfunc_begin4           ; >> Call Site 20 <<
	.uleb128 Ltmp188-Ltmp187                ;   Call between Ltmp187 and Ltmp188
	.uleb128 Ltmp189-Lfunc_begin4           ;     jumps to Ltmp189
	.byte	0                               ;   On action: cleanup
	.uleb128 Ltmp190-Lfunc_begin4           ; >> Call Site 21 <<
	.uleb128 Ltmp191-Ltmp190                ;   Call between Ltmp190 and Ltmp191
	.uleb128 Ltmp192-Lfunc_begin4           ;     jumps to Ltmp192
	.byte	0                               ;   On action: cleanup
	.uleb128 Ltmp193-Lfunc_begin4           ; >> Call Site 22 <<
	.uleb128 Ltmp194-Ltmp193                ;   Call between Ltmp193 and Ltmp194
	.uleb128 Ltmp195-Lfunc_begin4           ;     jumps to Ltmp195
	.byte	0                               ;   On action: cleanup
	.uleb128 Ltmp196-Lfunc_begin4           ; >> Call Site 23 <<
	.uleb128 Ltmp197-Ltmp196                ;   Call between Ltmp196 and Ltmp197
	.uleb128 Ltmp198-Lfunc_begin4           ;     jumps to Ltmp198
	.byte	0                               ;   On action: cleanup
	.uleb128 Ltmp202-Lfunc_begin4           ; >> Call Site 24 <<
	.uleb128 Ltmp203-Ltmp202                ;   Call between Ltmp202 and Ltmp203
	.uleb128 Ltmp204-Lfunc_begin4           ;     jumps to Ltmp204
	.byte	0                               ;   On action: cleanup
	.uleb128 Ltmp205-Lfunc_begin4           ; >> Call Site 25 <<
	.uleb128 Ltmp206-Ltmp205                ;   Call between Ltmp205 and Ltmp206
	.uleb128 Ltmp207-Lfunc_begin4           ;     jumps to Ltmp207
	.byte	0                               ;   On action: cleanup
	.uleb128 Ltmp208-Lfunc_begin4           ; >> Call Site 26 <<
	.uleb128 Ltmp209-Ltmp208                ;   Call between Ltmp208 and Ltmp209
	.uleb128 Ltmp210-Lfunc_begin4           ;     jumps to Ltmp210
	.byte	0                               ;   On action: cleanup
	.uleb128 Ltmp211-Lfunc_begin4           ; >> Call Site 27 <<
	.uleb128 Ltmp212-Ltmp211                ;   Call between Ltmp211 and Ltmp212
	.uleb128 Ltmp213-Lfunc_begin4           ;     jumps to Ltmp213
	.byte	0                               ;   On action: cleanup
	.uleb128 Ltmp217-Lfunc_begin4           ; >> Call Site 28 <<
	.uleb128 Ltmp226-Ltmp217                ;   Call between Ltmp217 and Ltmp226
	.uleb128 Ltmp236-Lfunc_begin4           ;     jumps to Ltmp236
	.byte	0                               ;   On action: cleanup
	.uleb128 Ltmp227-Lfunc_begin4           ; >> Call Site 29 <<
	.uleb128 Ltmp230-Ltmp227                ;   Call between Ltmp227 and Ltmp230
	.uleb128 Ltmp231-Lfunc_begin4           ;     jumps to Ltmp231
	.byte	0                               ;   On action: cleanup
	.uleb128 Ltmp232-Lfunc_begin4           ; >> Call Site 30 <<
	.uleb128 Ltmp235-Ltmp232                ;   Call between Ltmp232 and Ltmp235
	.uleb128 Ltmp236-Lfunc_begin4           ;     jumps to Ltmp236
	.byte	0                               ;   On action: cleanup
	.uleb128 Ltmp237-Lfunc_begin4           ; >> Call Site 31 <<
	.uleb128 Ltmp238-Ltmp237                ;   Call between Ltmp237 and Ltmp238
	.uleb128 Ltmp239-Lfunc_begin4           ;     jumps to Ltmp239
	.byte	5                               ;   On action: 3
	.uleb128 Ltmp240-Lfunc_begin4           ; >> Call Site 32 <<
	.uleb128 Ltmp241-Ltmp240                ;   Call between Ltmp240 and Ltmp241
	.uleb128 Ltmp242-Lfunc_begin4           ;     jumps to Ltmp242
	.byte	5                               ;   On action: 3
	.uleb128 Ltmp243-Lfunc_begin4           ; >> Call Site 33 <<
	.uleb128 Ltmp244-Ltmp243                ;   Call between Ltmp243 and Ltmp244
	.uleb128 Ltmp245-Lfunc_begin4           ;     jumps to Ltmp245
	.byte	0                               ;   On action: cleanup
	.uleb128 Ltmp249-Lfunc_begin4           ; >> Call Site 34 <<
	.uleb128 Ltmp252-Ltmp249                ;   Call between Ltmp249 and Ltmp252
	.uleb128 Ltmp262-Lfunc_begin4           ;     jumps to Ltmp262
	.byte	0                               ;   On action: cleanup
	.uleb128 Ltmp253-Lfunc_begin4           ; >> Call Site 35 <<
	.uleb128 Ltmp256-Ltmp253                ;   Call between Ltmp253 and Ltmp256
	.uleb128 Ltmp257-Lfunc_begin4           ;     jumps to Ltmp257
	.byte	0                               ;   On action: cleanup
	.uleb128 Ltmp258-Lfunc_begin4           ; >> Call Site 36 <<
	.uleb128 Ltmp261-Ltmp258                ;   Call between Ltmp258 and Ltmp261
	.uleb128 Ltmp262-Lfunc_begin4           ;     jumps to Ltmp262
	.byte	0                               ;   On action: cleanup
	.uleb128 Ltmp167-Lfunc_begin4           ; >> Call Site 37 <<
	.uleb128 Ltmp168-Ltmp167                ;   Call between Ltmp167 and Ltmp168
	.uleb128 Ltmp169-Lfunc_begin4           ;     jumps to Ltmp169
	.byte	0                               ;   On action: cleanup
	.uleb128 Ltmp168-Lfunc_begin4           ; >> Call Site 38 <<
	.uleb128 Ltmp246-Ltmp168                ;   Call between Ltmp168 and Ltmp246
	.byte	0                               ;     has no landing pad
	.byte	0                               ;   On action: cleanup
	.uleb128 Ltmp246-Lfunc_begin4           ; >> Call Site 39 <<
	.uleb128 Ltmp247-Ltmp246                ;   Call between Ltmp246 and Ltmp247
	.uleb128 Ltmp248-Lfunc_begin4           ;     jumps to Ltmp248
	.byte	0                               ;   On action: cleanup
	.uleb128 Ltmp247-Lfunc_begin4           ; >> Call Site 40 <<
	.uleb128 Ltmp135-Ltmp247                ;   Call between Ltmp247 and Ltmp135
	.byte	0                               ;     has no landing pad
	.byte	0                               ;   On action: cleanup
	.uleb128 Ltmp135-Lfunc_begin4           ; >> Call Site 41 <<
	.uleb128 Ltmp136-Ltmp135                ;   Call between Ltmp135 and Ltmp136
	.uleb128 Ltmp137-Lfunc_begin4           ;     jumps to Ltmp137
	.byte	0                               ;   On action: cleanup
	.uleb128 Ltmp120-Lfunc_begin4           ; >> Call Site 42 <<
	.uleb128 Ltmp121-Ltmp120                ;   Call between Ltmp120 and Ltmp121
	.uleb128 Ltmp122-Lfunc_begin4           ;     jumps to Ltmp122
	.byte	0                               ;   On action: cleanup
	.uleb128 Ltmp266-Lfunc_begin4           ; >> Call Site 43 <<
	.uleb128 Ltmp267-Ltmp266                ;   Call between Ltmp266 and Ltmp267
	.uleb128 Ltmp268-Lfunc_begin4           ;     jumps to Ltmp268
	.byte	0                               ;   On action: cleanup
	.uleb128 Ltmp214-Lfunc_begin4           ; >> Call Site 44 <<
	.uleb128 Ltmp215-Ltmp214                ;   Call between Ltmp214 and Ltmp215
	.uleb128 Ltmp216-Lfunc_begin4           ;     jumps to Ltmp216
	.byte	0                               ;   On action: cleanup
	.uleb128 Ltmp199-Lfunc_begin4           ; >> Call Site 45 <<
	.uleb128 Ltmp200-Ltmp199                ;   Call between Ltmp199 and Ltmp200
	.uleb128 Ltmp201-Lfunc_begin4           ;     jumps to Ltmp201
	.byte	0                               ;   On action: cleanup
	.uleb128 Ltmp263-Lfunc_begin4           ; >> Call Site 46 <<
	.uleb128 Ltmp264-Ltmp263                ;   Call between Ltmp263 and Ltmp264
	.uleb128 Ltmp265-Lfunc_begin4           ;     jumps to Ltmp265
	.byte	0                               ;   On action: cleanup
	.uleb128 Ltmp264-Lfunc_begin4           ; >> Call Site 47 <<
	.uleb128 Lfunc_end4-Ltmp264             ;   Call between Ltmp264 and Lfunc_end4
	.byte	0                               ;     has no landing pad
	.byte	0                               ;   On action: cleanup
Lcst_end4:
	.byte	0                               ; >> Action Record 1 <<
                                        ;   Cleanup
	.byte	0                               ;   No further actions
	.byte	0                               ; >> Action Record 2 <<
                                        ;   Cleanup
	.byte	125                             ;   Continue to action 1
	.byte	1                               ; >> Action Record 3 <<
                                        ;   Catch TypeInfo 1
	.byte	125                             ;   Continue to action 2
	.p2align	2, 0x0
                                        ; >> Catch TypeInfos <<
	.long	0                               ; TypeInfo 1
Lttbase4:
	.p2align	2, 0x0
                                        ; -- End function
	.section	__TEXT,__literal16,16byte_literals
	.p2align	4, 0x0                          ; -- Begin function _ZN10playground16play_with_matrixEv
lCPI6_0:
	.quad	3                               ; 0x3
	.quad	4                               ; 0x4
	.section	__TEXT,__text,regular,pure_instructions
	.globl	__ZN10playground16play_with_matrixEv
	.p2align	2
__ZN10playground16play_with_matrixEv:   ; @_ZN10playground16play_with_matrixEv
Lfunc_begin5:
	.cfi_startproc
	.cfi_personality 155, ___gxx_personality_v0
	.cfi_lsda 16, Lexception5
; %bb.0:
	sub	sp, sp, #128
	stp	x22, x21, [sp, #80]             ; 16-byte Folded Spill
	stp	x20, x19, [sp, #96]             ; 16-byte Folded Spill
	stp	x29, x30, [sp, #112]            ; 16-byte Folded Spill
	add	x29, sp, #112
	.cfi_def_cfa w29, 16
	.cfi_offset w30, -8
	.cfi_offset w29, -16
	.cfi_offset w19, -24
	.cfi_offset w20, -32
	.cfi_offset w21, -40
	.cfi_offset w22, -48
	str	xzr, [sp, #48]
Lloh96:
	adrp	x8, lCPI6_0@PAGE
Lloh97:
	ldr	q0, [x8, lCPI6_0@PAGEOFF]
	stur	q0, [sp, #56]
Ltmp269:
	add	x0, sp, #48
	bl	__ZN10playground8Matrix2DIiE5allocEv
Ltmp270:
; %bb.1:
	ldr	x8, [sp, #48]
	cbz	x8, LBB6_88
; %bb.2:
	ldp	x9, x10, [sp, #56]
	cmp	x9, #0
	ccmp	x10, #0, #4, ne
	b.eq	LBB6_85
; %bb.3:
	ldr	x9, [x8]
	mov	w10, #1                         ; =0x1
	str	w10, [x9]
	ldr	x10, [sp, #64]
	cmp	x10, #2
	b.lo	LBB6_85
; %bb.4:
	mov	w10, #2                         ; =0x2
	str	w10, [x9, #4]
	ldr	x10, [sp, #64]
	cmp	x10, #3
	b.lo	LBB6_85
; %bb.5:
	mov	w10, #3                         ; =0x3
	str	w10, [x9, #8]
	ldr	x10, [sp, #64]
	cmp	x10, #4
	b.lo	LBB6_85
; %bb.6:
	mov	w10, #4                         ; =0x4
	str	w10, [x9, #12]
	ldr	x9, [sp, #56]
	cmp	x9, #2
	b.lo	LBB6_85
; %bb.7:
	ldr	x9, [sp, #64]
	cbz	x9, LBB6_85
; %bb.8:
	ldr	x9, [x8, #8]
	mov	w10, #2                         ; =0x2
	str	w10, [x9]
	ldr	x10, [sp, #64]
	cmp	x10, #2
	b.lo	LBB6_85
; %bb.9:
	mov	w10, #4                         ; =0x4
	str	w10, [x9, #4]
	ldr	x10, [sp, #64]
	cmp	x10, #3
	b.lo	LBB6_85
; %bb.10:
	mov	w10, #6                         ; =0x6
	str	w10, [x9, #8]
	ldr	x10, [sp, #64]
	cmp	x10, #4
	b.lo	LBB6_85
; %bb.11:
	mov	w10, #8                         ; =0x8
	str	w10, [x9, #12]
	ldr	x9, [sp, #56]
	cmp	x9, #3
	b.lo	LBB6_85
; %bb.12:
	ldr	x9, [sp, #64]
	cbz	x9, LBB6_85
; %bb.13:
	ldr	x8, [x8, #16]
	mov	w9, #3                          ; =0x3
	str	w9, [x8]
	ldr	x9, [sp, #64]
	cmp	x9, #2
	b.lo	LBB6_85
; %bb.14:
	mov	w9, #6                          ; =0x6
	str	w9, [x8, #4]
	ldr	x9, [sp, #64]
	cmp	x9, #3
	b.lo	LBB6_85
; %bb.15:
	mov	w9, #9                          ; =0x9
	str	w9, [x8, #8]
	ldr	x9, [sp, #64]
	cmp	x9, #3
	b.ls	LBB6_85
; %bb.16:
	mov	w9, #12                         ; =0xc
	str	w9, [x8, #12]
	str	xzr, [sp, #24]
	ldur	q0, [sp, #56]
	stur	q0, [sp, #32]
Ltmp272:
	add	x0, sp, #24
	bl	__ZN10playground8Matrix2DIiE5allocEv
Ltmp273:
; %bb.17:
	ldr	x8, [sp, #32]
	cbz	x8, LBB6_23
; %bb.18:
	ldr	x9, [sp, #40]
	cbz	x9, LBB6_23
; %bb.19:
	mov	x19, #0                         ; =0x0
	cbz	x9, LBB6_21
LBB6_20:
	ldr	x8, [sp, #48]
	ldr	x1, [x8, x19, lsl #3]
	lsl	x2, x9, #2
	ldr	x8, [sp, #24]
	ldr	x0, [x8, x19, lsl #3]
	bl	_memmove
	ldr	x8, [sp, #32]
LBB6_21:                                ; =>This Inner Loop Header: Depth=1
	add	x19, x19, #1
	cmp	x19, x8
	b.hs	LBB6_23
; %bb.22:                               ;   in Loop: Header=BB6_21 Depth=1
	ldr	x9, [sp, #40]
	cbnz	x9, LBB6_20
	b	LBB6_21
LBB6_23:
Ltmp275:
	add	x0, sp, #24
	mov	w1, #2                          ; =0x2
	mov	w2, #3                          ; =0x3
	bl	__ZN10playground8Matrix2DIiEixEmm
Ltmp276:
; %bb.24:
	mov	w8, #-1                         ; =0xffffffff
	str	w8, [x0]
Ltmp277:
Lloh98:
	adrp	x0, __ZNSt3__14coutE@GOTPAGE
Lloh99:
	ldr	x0, [x0, __ZNSt3__14coutE@GOTPAGEOFF]
	add	x1, sp, #48
	bl	__ZN10playgroundlsERNSt3__113basic_ostreamIcNS0_11char_traitsIcEEEERKNS_8Matrix2DIiEE
Ltmp278:
; %bb.25:
	mov	x19, x0
	ldr	x8, [x0]
	ldur	x9, [x8, #-24]
Ltmp279:
	mov	x8, sp
	add	x0, x0, x9
	bl	__ZNKSt3__18ios_base6getlocEv
Ltmp280:
; %bb.26:
Ltmp281:
Lloh100:
	adrp	x1, __ZNSt3__15ctypeIcE2idE@GOTPAGE
Lloh101:
	ldr	x1, [x1, __ZNSt3__15ctypeIcE2idE@GOTPAGEOFF]
	mov	x0, sp
	bl	__ZNKSt3__16locale9use_facetERNS0_2idE
Ltmp282:
; %bb.27:
	ldr	x8, [x0]
	ldr	x8, [x8, #56]
Ltmp283:
	mov	w1, #10                         ; =0xa
	blr	x8
Ltmp284:
; %bb.28:
	mov	x20, x0
	mov	x0, sp
	bl	__ZNSt3__16localeD1Ev
Ltmp286:
	mov	x0, x19
	mov	x1, x20
	bl	__ZNSt3__113basic_ostreamIcNS_11char_traitsIcEEE3putEc
Ltmp287:
; %bb.29:
Ltmp288:
	mov	x0, x19
	bl	__ZNSt3__113basic_ostreamIcNS_11char_traitsIcEEE5flushEv
Ltmp289:
; %bb.30:
Ltmp290:
Lloh102:
	adrp	x0, __ZNSt3__14coutE@GOTPAGE
Lloh103:
	ldr	x0, [x0, __ZNSt3__14coutE@GOTPAGEOFF]
	add	x1, sp, #24
	bl	__ZN10playgroundlsERNSt3__113basic_ostreamIcNS0_11char_traitsIcEEEERKNS_8Matrix2DIiEE
Ltmp291:
; %bb.31:
	mov	x19, x0
	ldr	x8, [x0]
	ldur	x9, [x8, #-24]
Ltmp292:
	mov	x8, sp
	add	x0, x0, x9
	bl	__ZNKSt3__18ios_base6getlocEv
Ltmp293:
; %bb.32:
Ltmp294:
Lloh104:
	adrp	x1, __ZNSt3__15ctypeIcE2idE@GOTPAGE
Lloh105:
	ldr	x1, [x1, __ZNSt3__15ctypeIcE2idE@GOTPAGEOFF]
	mov	x0, sp
	bl	__ZNKSt3__16locale9use_facetERNS0_2idE
Ltmp295:
; %bb.33:
	ldr	x8, [x0]
	ldr	x8, [x8, #56]
Ltmp296:
	mov	w1, #10                         ; =0xa
	blr	x8
Ltmp297:
; %bb.34:
	mov	x20, x0
	mov	x0, sp
	bl	__ZNSt3__16localeD1Ev
Ltmp299:
	mov	x0, x19
	mov	x1, x20
	bl	__ZNSt3__113basic_ostreamIcNS_11char_traitsIcEEE3putEc
Ltmp300:
; %bb.35:
Ltmp301:
	mov	x0, x19
	bl	__ZNSt3__113basic_ostreamIcNS_11char_traitsIcEEE5flushEv
Ltmp302:
; %bb.36:
	str	xzr, [sp]
	ldur	q0, [sp, #56]
	stur	q0, [sp, #8]
Ltmp304:
	mov	x0, sp
	bl	__ZN10playground8Matrix2DIdE5allocEv
Ltmp305:
; %bb.37:
	ldr	x8, [sp, #8]
	cbz	x8, LBB6_56
; %bb.38:
	ldr	x11, [sp, #16]
	cbz	x11, LBB6_56
; %bb.39:
	ldr	x9, [sp, #48]
	ldr	x10, [sp]
	sub	x12, x11, #1
	lsl	x11, x11, #2
	ands	x12, x12, #0x3fffffffffffffff
	b.eq	LBB6_53
; %bb.40:
	mov	x13, #0                         ; =0x0
	add	x14, x12, #1
	and	x15, x14, #0x7ffffffffffffff0
	and	x16, x14, #0xe
	and	x17, x14, #0x7ffffffffffffffe
	neg	x0, x17
	b	LBB6_42
LBB6_41:                                ;   in Loop: Header=BB6_42 Depth=1
	add	x13, x13, #1
	cmp	x13, x8
	b.eq	LBB6_56
LBB6_42:                                ; =>This Loop Header: Depth=1
                                        ;     Child Loop BB6_45 Depth 2
                                        ;     Child Loop BB6_49 Depth 2
                                        ;     Child Loop BB6_52 Depth 2
	ldr	x2, [x9, x13, lsl #3]
	ldr	x1, [x10, x13, lsl #3]
	cmp	x12, #15
	b.hs	LBB6_44
; %bb.43:                               ;   in Loop: Header=BB6_42 Depth=1
	mov	x5, #0                          ; =0x0
	b	LBB6_48
LBB6_44:                                ;   in Loop: Header=BB6_42 Depth=1
	add	x3, x1, #64
	add	x4, x2, #32
	mov	x5, x15
LBB6_45:                                ;   Parent Loop BB6_42 Depth=1
                                        ; =>  This Inner Loop Header: Depth=2
	ldp	q0, q1, [x4, #-32]
	sshll.2d	v2, v0, #0
	ldp	q3, q4, [x4], #64
	scvtf.2d	v2, v2
	sshll2.2d	v0, v0, #0
	scvtf.2d	v0, v0
	sshll.2d	v5, v1, #0
	scvtf.2d	v5, v5
	sshll2.2d	v1, v1, #0
	scvtf.2d	v1, v1
	sshll.2d	v6, v3, #0
	scvtf.2d	v6, v6
	sshll2.2d	v3, v3, #0
	scvtf.2d	v3, v3
	sshll.2d	v7, v4, #0
	scvtf.2d	v7, v7
	stp	q2, q0, [x3, #-64]
	sshll2.2d	v0, v4, #0
	stp	q5, q1, [x3, #-32]
	stp	q6, q3, [x3]
	scvtf.2d	v0, v0
	stp	q7, q0, [x3, #32]
	add	x3, x3, #128
	subs	x5, x5, #16
	b.ne	LBB6_45
; %bb.46:                               ;   in Loop: Header=BB6_42 Depth=1
	cmp	x14, x15
	b.eq	LBB6_41
; %bb.47:                               ;   in Loop: Header=BB6_42 Depth=1
	mov	x5, x15
	mov	x3, x15
	cbz	x16, LBB6_51
LBB6_48:                                ;   in Loop: Header=BB6_42 Depth=1
	add	x3, x2, x5, lsl #2
	add	x4, x0, x5
	add	x5, x1, x5, lsl #3
LBB6_49:                                ;   Parent Loop BB6_42 Depth=1
                                        ; =>  This Inner Loop Header: Depth=2
	ldr	d0, [x3], #8
	sshll.2d	v0, v0, #0
	scvtf.2d	v0, v0
	str	q0, [x5], #16
	adds	x4, x4, #2
	b.ne	LBB6_49
; %bb.50:                               ;   in Loop: Header=BB6_42 Depth=1
	mov	x3, x17
	cmp	x14, x17
	b.eq	LBB6_41
LBB6_51:                                ;   in Loop: Header=BB6_42 Depth=1
	lsl	x4, x3, #2
	add	x2, x2, x4
	add	x1, x1, x3, lsl #3
	sub	x3, x11, x4
LBB6_52:                                ;   Parent Loop BB6_42 Depth=1
                                        ; =>  This Inner Loop Header: Depth=2
	ldr	w4, [x2], #4
	scvtf	d0, w4
	str	d0, [x1], #8
	subs	x3, x3, #4
	b.ne	LBB6_52
	b	LBB6_41
LBB6_53:                                ; =>This Loop Header: Depth=1
                                        ;     Child Loop BB6_54 Depth 2
	ldr	x13, [x9, x12, lsl #3]
	ldr	x14, [x10, x12, lsl #3]
	mov	x15, x11
LBB6_54:                                ;   Parent Loop BB6_53 Depth=1
                                        ; =>  This Inner Loop Header: Depth=2
	ldr	w16, [x13], #4
	scvtf	d0, w16
	str	d0, [x14], #8
	subs	x15, x15, #4
	b.ne	LBB6_54
; %bb.55:                               ;   in Loop: Header=BB6_53 Depth=1
	add	x12, x12, #1
	cmp	x12, x8
	b.ne	LBB6_53
LBB6_56:
Ltmp307:
	mov	x0, sp
	mov	x1, #0                          ; =0x0
	mov	x2, #0                          ; =0x0
	bl	__ZN10playground8Matrix2DIdEixEmm
Ltmp308:
; %bb.57:
	mov	x8, #34079                      ; =0x851f
	movk	x8, #20971, lsl #16
	movk	x8, #7864, lsl #32
	movk	x8, #16393, lsl #48
	str	x8, [x0]
Ltmp309:
Lloh106:
	adrp	x0, __ZNSt3__14coutE@GOTPAGE
Lloh107:
	ldr	x0, [x0, __ZNSt3__14coutE@GOTPAGEOFF]
	mov	x1, sp
	bl	__ZN10playgroundlsERNSt3__113basic_ostreamIcNS0_11char_traitsIcEEEERKNS_8Matrix2DIdEE
Ltmp310:
; %bb.58:
	mov	x19, x0
	ldr	x8, [x0]
	ldur	x9, [x8, #-24]
Ltmp311:
	sub	x8, x29, #40
	add	x0, x0, x9
	bl	__ZNKSt3__18ios_base6getlocEv
Ltmp312:
; %bb.59:
Ltmp313:
Lloh108:
	adrp	x1, __ZNSt3__15ctypeIcE2idE@GOTPAGE
Lloh109:
	ldr	x1, [x1, __ZNSt3__15ctypeIcE2idE@GOTPAGEOFF]
	sub	x0, x29, #40
	bl	__ZNKSt3__16locale9use_facetERNS0_2idE
Ltmp314:
; %bb.60:
	ldr	x8, [x0]
	ldr	x8, [x8, #56]
Ltmp315:
	mov	w1, #10                         ; =0xa
	blr	x8
Ltmp316:
; %bb.61:
	mov	x20, x0
	sub	x0, x29, #40
	bl	__ZNSt3__16localeD1Ev
Ltmp318:
	mov	x0, x19
	mov	x1, x20
	bl	__ZNSt3__113basic_ostreamIcNS_11char_traitsIcEEE3putEc
Ltmp319:
; %bb.62:
Ltmp320:
	mov	x0, x19
	bl	__ZNSt3__113basic_ostreamIcNS_11char_traitsIcEEE5flushEv
Ltmp321:
; %bb.63:
	ldr	x20, [sp]
	str	xzr, [sp]
	cbz	x20, LBB6_70
; %bb.64:
	ldr	x8, [x20, #-8]!
	sub	x19, x20, #8
	cbz	x8, LBB6_69
; %bb.65:
	lsl	x21, x8, #3
	b	LBB6_67
LBB6_66:                                ;   in Loop: Header=BB6_67 Depth=1
	subs	x21, x21, #8
	b.eq	LBB6_69
LBB6_67:                                ; =>This Inner Loop Header: Depth=1
	ldr	x0, [x20, x21]
	str	xzr, [x20, x21]
	cbz	x0, LBB6_66
; %bb.68:                               ;   in Loop: Header=BB6_67 Depth=1
	bl	__ZdaPv
	b	LBB6_66
LBB6_69:
	mov	x0, x19
	bl	__ZdaPv
LBB6_70:
	ldr	x20, [sp, #24]
	str	xzr, [sp, #24]
	cbz	x20, LBB6_77
; %bb.71:
	ldr	x8, [x20, #-8]!
	sub	x19, x20, #8
	cbz	x8, LBB6_76
; %bb.72:
	lsl	x21, x8, #3
	b	LBB6_74
LBB6_73:                                ;   in Loop: Header=BB6_74 Depth=1
	subs	x21, x21, #8
	b.eq	LBB6_76
LBB6_74:                                ; =>This Inner Loop Header: Depth=1
	ldr	x0, [x20, x21]
	str	xzr, [x20, x21]
	cbz	x0, LBB6_73
; %bb.75:                               ;   in Loop: Header=BB6_74 Depth=1
	bl	__ZdaPv
	b	LBB6_73
LBB6_76:
	mov	x0, x19
	bl	__ZdaPv
LBB6_77:
	ldr	x20, [sp, #48]
	str	xzr, [sp, #48]
	cbz	x20, LBB6_84
; %bb.78:
	ldr	x8, [x20, #-8]!
	sub	x19, x20, #8
	cbz	x8, LBB6_83
; %bb.79:
	lsl	x21, x8, #3
	b	LBB6_81
LBB6_80:                                ;   in Loop: Header=BB6_81 Depth=1
	subs	x21, x21, #8
	b.eq	LBB6_83
LBB6_81:                                ; =>This Inner Loop Header: Depth=1
	ldr	x0, [x20, x21]
	str	xzr, [x20, x21]
	cbz	x0, LBB6_80
; %bb.82:                               ;   in Loop: Header=BB6_81 Depth=1
	bl	__ZdaPv
	b	LBB6_80
LBB6_83:
	mov	x0, x19
	bl	__ZdaPv
LBB6_84:
	ldp	x29, x30, [sp, #112]            ; 16-byte Folded Reload
	ldp	x20, x19, [sp, #96]             ; 16-byte Folded Reload
	ldp	x22, x21, [sp, #80]             ; 16-byte Folded Reload
	add	sp, sp, #128
	ret
LBB6_85:
	mov	w0, #16                         ; =0x10
	bl	___cxa_allocate_exception
	mov	x20, x0
Ltmp323:
Lloh110:
	adrp	x1, l_.str.130@PAGE
Lloh111:
	add	x1, x1, l_.str.130@PAGEOFF
	bl	__ZNSt13runtime_errorC1EPKc
Ltmp324:
LBB6_86:
Ltmp329:
Lloh112:
	adrp	x1, __ZTISt13runtime_error@GOTPAGE
Lloh113:
	ldr	x1, [x1, __ZTISt13runtime_error@GOTPAGEOFF]
Lloh114:
	adrp	x2, __ZNSt13runtime_errorD1Ev@GOTPAGE
Lloh115:
	ldr	x2, [x2, __ZNSt13runtime_errorD1Ev@GOTPAGEOFF]
	mov	x0, x20
	bl	___cxa_throw
Ltmp330:
; %bb.87:
	brk	#0x1
LBB6_88:
	mov	w0, #16                         ; =0x10
	bl	___cxa_allocate_exception
	mov	x20, x0
Ltmp326:
Lloh116:
	adrp	x1, l_.str.131@PAGE
Lloh117:
	add	x1, x1, l_.str.131@PAGEOFF
	bl	__ZNSt13runtime_errorC1EPKc
Ltmp327:
	b	LBB6_86
LBB6_89:
Ltmp328:
	b	LBB6_100
LBB6_90:
Ltmp306:
	mov	x19, x0
	mov	x0, sp
	bl	__ZNSt3__110unique_ptrIA_NS0_IA_dNS_14default_deleteIS1_EEEENS2_IS5_EEED1B8ne200100Ev
	add	x0, sp, #24
	bl	__ZN10playground8Matrix2DIiED1Ev
	add	x0, sp, #48
	bl	__ZN10playground8Matrix2DIiED1Ev
	mov	x0, x19
	bl	__Unwind_Resume
LBB6_91:
Ltmp274:
	mov	x19, x0
	add	x0, sp, #24
	bl	__ZNSt3__110unique_ptrIA_NS0_IA_iNS_14default_deleteIS1_EEEENS2_IS5_EEED1B8ne200100Ev
	add	x0, sp, #48
	bl	__ZN10playground8Matrix2DIiED1Ev
	mov	x0, x19
	bl	__Unwind_Resume
LBB6_92:
Ltmp271:
	mov	x19, x0
	add	x0, sp, #48
	bl	__ZNSt3__110unique_ptrIA_NS0_IA_iNS_14default_deleteIS1_EEEENS2_IS5_EEED1B8ne200100Ev
	mov	x0, x19
	bl	__Unwind_Resume
LBB6_93:
Ltmp317:
	mov	x19, x0
	sub	x0, x29, #40
	bl	__ZNSt3__16localeD1Ev
	b	LBB6_98
LBB6_94:
Ltmp298:
	b	LBB6_96
LBB6_95:
Ltmp285:
LBB6_96:
	mov	x19, x0
	mov	x0, sp
	bl	__ZNSt3__16localeD1Ev
	add	x0, sp, #24
	bl	__ZN10playground8Matrix2DIiED1Ev
	add	x0, sp, #48
	bl	__ZN10playground8Matrix2DIiED1Ev
	mov	x0, x19
	bl	__Unwind_Resume
LBB6_97:
Ltmp322:
	mov	x19, x0
LBB6_98:
	mov	x0, sp
	bl	__ZN10playground8Matrix2DIdED1Ev
	add	x0, sp, #24
	bl	__ZN10playground8Matrix2DIiED1Ev
	add	x0, sp, #48
	bl	__ZN10playground8Matrix2DIiED1Ev
	mov	x0, x19
	bl	__Unwind_Resume
LBB6_99:
Ltmp325:
LBB6_100:
	mov	x19, x0
	mov	x0, x20
	bl	___cxa_free_exception
	add	x0, sp, #48
	bl	__ZN10playground8Matrix2DIiED1Ev
	mov	x0, x19
	bl	__Unwind_Resume
LBB6_101:
Ltmp331:
	mov	x19, x0
	add	x0, sp, #48
	bl	__ZN10playground8Matrix2DIiED1Ev
	mov	x0, x19
	bl	__Unwind_Resume
LBB6_102:
Ltmp303:
	mov	x19, x0
	add	x0, sp, #24
	bl	__ZN10playground8Matrix2DIiED1Ev
	add	x0, sp, #48
	bl	__ZN10playground8Matrix2DIiED1Ev
	mov	x0, x19
	bl	__Unwind_Resume
	.loh AdrpLdr	Lloh96, Lloh97
	.loh AdrpLdrGot	Lloh98, Lloh99
	.loh AdrpLdrGot	Lloh100, Lloh101
	.loh AdrpLdrGot	Lloh102, Lloh103
	.loh AdrpLdrGot	Lloh104, Lloh105
	.loh AdrpLdrGot	Lloh106, Lloh107
	.loh AdrpLdrGot	Lloh108, Lloh109
	.loh AdrpAdd	Lloh110, Lloh111
	.loh AdrpLdrGot	Lloh114, Lloh115
	.loh AdrpLdrGot	Lloh112, Lloh113
	.loh AdrpAdd	Lloh116, Lloh117
Lfunc_end5:
	.cfi_endproc
	.section	__TEXT,__gcc_except_tab
	.p2align	2, 0x0
GCC_except_table6:
Lexception5:
	.byte	255                             ; @LPStart Encoding = omit
	.byte	255                             ; @TType Encoding = omit
	.byte	1                               ; Call site Encoding = uleb128
	.uleb128 Lcst_end5-Lcst_begin5
Lcst_begin5:
	.uleb128 Ltmp269-Lfunc_begin5           ; >> Call Site 1 <<
	.uleb128 Ltmp270-Ltmp269                ;   Call between Ltmp269 and Ltmp270
	.uleb128 Ltmp271-Lfunc_begin5           ;     jumps to Ltmp271
	.byte	0                               ;   On action: cleanup
	.uleb128 Ltmp272-Lfunc_begin5           ; >> Call Site 2 <<
	.uleb128 Ltmp273-Ltmp272                ;   Call between Ltmp272 and Ltmp273
	.uleb128 Ltmp274-Lfunc_begin5           ;     jumps to Ltmp274
	.byte	0                               ;   On action: cleanup
	.uleb128 Ltmp273-Lfunc_begin5           ; >> Call Site 3 <<
	.uleb128 Ltmp275-Ltmp273                ;   Call between Ltmp273 and Ltmp275
	.byte	0                               ;     has no landing pad
	.byte	0                               ;   On action: cleanup
	.uleb128 Ltmp275-Lfunc_begin5           ; >> Call Site 4 <<
	.uleb128 Ltmp280-Ltmp275                ;   Call between Ltmp275 and Ltmp280
	.uleb128 Ltmp303-Lfunc_begin5           ;     jumps to Ltmp303
	.byte	0                               ;   On action: cleanup
	.uleb128 Ltmp281-Lfunc_begin5           ; >> Call Site 5 <<
	.uleb128 Ltmp284-Ltmp281                ;   Call between Ltmp281 and Ltmp284
	.uleb128 Ltmp285-Lfunc_begin5           ;     jumps to Ltmp285
	.byte	0                               ;   On action: cleanup
	.uleb128 Ltmp286-Lfunc_begin5           ; >> Call Site 6 <<
	.uleb128 Ltmp293-Ltmp286                ;   Call between Ltmp286 and Ltmp293
	.uleb128 Ltmp303-Lfunc_begin5           ;     jumps to Ltmp303
	.byte	0                               ;   On action: cleanup
	.uleb128 Ltmp294-Lfunc_begin5           ; >> Call Site 7 <<
	.uleb128 Ltmp297-Ltmp294                ;   Call between Ltmp294 and Ltmp297
	.uleb128 Ltmp298-Lfunc_begin5           ;     jumps to Ltmp298
	.byte	0                               ;   On action: cleanup
	.uleb128 Ltmp299-Lfunc_begin5           ; >> Call Site 8 <<
	.uleb128 Ltmp302-Ltmp299                ;   Call between Ltmp299 and Ltmp302
	.uleb128 Ltmp303-Lfunc_begin5           ;     jumps to Ltmp303
	.byte	0                               ;   On action: cleanup
	.uleb128 Ltmp304-Lfunc_begin5           ; >> Call Site 9 <<
	.uleb128 Ltmp305-Ltmp304                ;   Call between Ltmp304 and Ltmp305
	.uleb128 Ltmp306-Lfunc_begin5           ;     jumps to Ltmp306
	.byte	0                               ;   On action: cleanup
	.uleb128 Ltmp307-Lfunc_begin5           ; >> Call Site 10 <<
	.uleb128 Ltmp312-Ltmp307                ;   Call between Ltmp307 and Ltmp312
	.uleb128 Ltmp322-Lfunc_begin5           ;     jumps to Ltmp322
	.byte	0                               ;   On action: cleanup
	.uleb128 Ltmp313-Lfunc_begin5           ; >> Call Site 11 <<
	.uleb128 Ltmp316-Ltmp313                ;   Call between Ltmp313 and Ltmp316
	.uleb128 Ltmp317-Lfunc_begin5           ;     jumps to Ltmp317
	.byte	0                               ;   On action: cleanup
	.uleb128 Ltmp318-Lfunc_begin5           ; >> Call Site 12 <<
	.uleb128 Ltmp321-Ltmp318                ;   Call between Ltmp318 and Ltmp321
	.uleb128 Ltmp322-Lfunc_begin5           ;     jumps to Ltmp322
	.byte	0                               ;   On action: cleanup
	.uleb128 Ltmp321-Lfunc_begin5           ; >> Call Site 13 <<
	.uleb128 Ltmp323-Ltmp321                ;   Call between Ltmp321 and Ltmp323
	.byte	0                               ;     has no landing pad
	.byte	0                               ;   On action: cleanup
	.uleb128 Ltmp323-Lfunc_begin5           ; >> Call Site 14 <<
	.uleb128 Ltmp324-Ltmp323                ;   Call between Ltmp323 and Ltmp324
	.uleb128 Ltmp325-Lfunc_begin5           ;     jumps to Ltmp325
	.byte	0                               ;   On action: cleanup
	.uleb128 Ltmp329-Lfunc_begin5           ; >> Call Site 15 <<
	.uleb128 Ltmp330-Ltmp329                ;   Call between Ltmp329 and Ltmp330
	.uleb128 Ltmp331-Lfunc_begin5           ;     jumps to Ltmp331
	.byte	0                               ;   On action: cleanup
	.uleb128 Ltmp330-Lfunc_begin5           ; >> Call Site 16 <<
	.uleb128 Ltmp326-Ltmp330                ;   Call between Ltmp330 and Ltmp326
	.byte	0                               ;     has no landing pad
	.byte	0                               ;   On action: cleanup
	.uleb128 Ltmp326-Lfunc_begin5           ; >> Call Site 17 <<
	.uleb128 Ltmp327-Ltmp326                ;   Call between Ltmp326 and Ltmp327
	.uleb128 Ltmp328-Lfunc_begin5           ;     jumps to Ltmp328
	.byte	0                               ;   On action: cleanup
	.uleb128 Ltmp327-Lfunc_begin5           ; >> Call Site 18 <<
	.uleb128 Lfunc_end5-Ltmp327             ;   Call between Ltmp327 and Lfunc_end5
	.byte	0                               ;     has no landing pad
	.byte	0                               ;   On action: cleanup
Lcst_end5:
	.p2align	2, 0x0
                                        ; -- End function
	.section	__TEXT,__text,regular,pure_instructions
	.globl	__ZN10playground8Matrix2DIiEixEmm ; -- Begin function _ZN10playground8Matrix2DIiEixEmm
	.weak_def_can_be_hidden	__ZN10playground8Matrix2DIiEixEmm
	.p2align	2
__ZN10playground8Matrix2DIiEixEmm:      ; @_ZN10playground8Matrix2DIiEixEmm
Lfunc_begin6:
	.cfi_startproc
	.cfi_personality 155, ___gxx_personality_v0
	.cfi_lsda 16, Lexception6
; %bb.0:
	stp	x20, x19, [sp, #-32]!           ; 16-byte Folded Spill
	stp	x29, x30, [sp, #16]             ; 16-byte Folded Spill
	add	x29, sp, #16
	.cfi_def_cfa w29, 16
	.cfi_offset w30, -8
	.cfi_offset w29, -16
	.cfi_offset w19, -24
	.cfi_offset w20, -32
	ldr	x8, [x0]
	cbz	x8, LBB7_5
; %bb.1:
	ldr	x9, [x0, #8]
	cmp	x9, x1
	b.ls	LBB7_4
; %bb.2:
	ldr	x9, [x0, #16]
	cmp	x9, x2
	b.ls	LBB7_4
; %bb.3:
	ldr	x8, [x8, x1, lsl #3]
	add	x0, x8, x2, lsl #2
	ldp	x29, x30, [sp, #16]             ; 16-byte Folded Reload
	ldp	x20, x19, [sp], #32             ; 16-byte Folded Reload
	ret
LBB7_4:
	mov	w0, #16                         ; =0x10
	bl	___cxa_allocate_exception
	mov	x19, x0
Ltmp332:
Lloh118:
	adrp	x1, l_.str.130@PAGE
Lloh119:
	add	x1, x1, l_.str.130@PAGEOFF
	bl	__ZNSt13runtime_errorC1EPKc
Ltmp333:
	b	LBB7_6
LBB7_5:
	mov	w0, #16                         ; =0x10
	bl	___cxa_allocate_exception
	mov	x19, x0
Ltmp335:
Lloh120:
	adrp	x1, l_.str.131@PAGE
Lloh121:
	add	x1, x1, l_.str.131@PAGEOFF
	bl	__ZNSt13runtime_errorC1EPKc
Ltmp336:
LBB7_6:
Lloh122:
	adrp	x1, __ZTISt13runtime_error@GOTPAGE
Lloh123:
	ldr	x1, [x1, __ZTISt13runtime_error@GOTPAGEOFF]
Lloh124:
	adrp	x2, __ZNSt13runtime_errorD1Ev@GOTPAGE
Lloh125:
	ldr	x2, [x2, __ZNSt13runtime_errorD1Ev@GOTPAGEOFF]
	mov	x0, x19
	bl	___cxa_throw
LBB7_7:
Ltmp337:
	mov	x20, x0
	mov	x0, x19
	bl	___cxa_free_exception
	mov	x0, x20
	bl	__Unwind_Resume
LBB7_8:
Ltmp334:
	mov	x20, x0
	mov	x0, x19
	bl	___cxa_free_exception
	mov	x0, x20
	bl	__Unwind_Resume
	.loh AdrpAdd	Lloh118, Lloh119
	.loh AdrpAdd	Lloh120, Lloh121
	.loh AdrpLdrGot	Lloh124, Lloh125
	.loh AdrpLdrGot	Lloh122, Lloh123
Lfunc_end6:
	.cfi_endproc
	.section	__TEXT,__gcc_except_tab
	.p2align	2, 0x0
GCC_except_table7:
Lexception6:
	.byte	255                             ; @LPStart Encoding = omit
	.byte	255                             ; @TType Encoding = omit
	.byte	1                               ; Call site Encoding = uleb128
	.uleb128 Lcst_end6-Lcst_begin6
Lcst_begin6:
	.uleb128 Lfunc_begin6-Lfunc_begin6      ; >> Call Site 1 <<
	.uleb128 Ltmp332-Lfunc_begin6           ;   Call between Lfunc_begin6 and Ltmp332
	.byte	0                               ;     has no landing pad
	.byte	0                               ;   On action: cleanup
	.uleb128 Ltmp332-Lfunc_begin6           ; >> Call Site 2 <<
	.uleb128 Ltmp333-Ltmp332                ;   Call between Ltmp332 and Ltmp333
	.uleb128 Ltmp334-Lfunc_begin6           ;     jumps to Ltmp334
	.byte	0                               ;   On action: cleanup
	.uleb128 Ltmp333-Lfunc_begin6           ; >> Call Site 3 <<
	.uleb128 Ltmp335-Ltmp333                ;   Call between Ltmp333 and Ltmp335
	.byte	0                               ;     has no landing pad
	.byte	0                               ;   On action: cleanup
	.uleb128 Ltmp335-Lfunc_begin6           ; >> Call Site 4 <<
	.uleb128 Ltmp336-Ltmp335                ;   Call between Ltmp335 and Ltmp336
	.uleb128 Ltmp337-Lfunc_begin6           ;     jumps to Ltmp337
	.byte	0                               ;   On action: cleanup
	.uleb128 Ltmp336-Lfunc_begin6           ; >> Call Site 5 <<
	.uleb128 Lfunc_end6-Ltmp336             ;   Call between Ltmp336 and Lfunc_end6
	.byte	0                               ;     has no landing pad
	.byte	0                               ;   On action: cleanup
Lcst_end6:
	.p2align	2, 0x0
                                        ; -- End function
	.section	__TEXT,__text,regular,pure_instructions
	.globl	__ZN10playgroundlsERNSt3__113basic_ostreamIcNS0_11char_traitsIcEEEERKNS_8Matrix2DIiEE ; -- Begin function _ZN10playgroundlsERNSt3__113basic_ostreamIcNS0_11char_traitsIcEEEERKNS_8Matrix2DIiEE
	.weak_def_can_be_hidden	__ZN10playgroundlsERNSt3__113basic_ostreamIcNS0_11char_traitsIcEEEERKNS_8Matrix2DIiEE
	.p2align	2
__ZN10playgroundlsERNSt3__113basic_ostreamIcNS0_11char_traitsIcEEEERKNS_8Matrix2DIiEE: ; @_ZN10playgroundlsERNSt3__113basic_ostreamIcNS0_11char_traitsIcEEEERKNS_8Matrix2DIiEE
Lfunc_begin7:
	.cfi_startproc
	.cfi_personality 155, ___gxx_personality_v0
	.cfi_lsda 16, Lexception7
; %bb.0:
	sub	sp, sp, #80
	stp	x24, x23, [sp, #16]             ; 16-byte Folded Spill
	stp	x22, x21, [sp, #32]             ; 16-byte Folded Spill
	stp	x20, x19, [sp, #48]             ; 16-byte Folded Spill
	stp	x29, x30, [sp, #64]             ; 16-byte Folded Spill
	add	x29, sp, #64
	.cfi_def_cfa w29, 16
	.cfi_offset w30, -8
	.cfi_offset w29, -16
	.cfi_offset w19, -24
	.cfi_offset w20, -32
	.cfi_offset w21, -40
	.cfi_offset w22, -48
	.cfi_offset w23, -56
	.cfi_offset w24, -64
	mov	x19, x0
	ldr	x8, [x1]
	cbz	x8, LBB8_11
; %bb.1:
	mov	x20, x1
	ldr	x8, [x1, #8]
	cbz	x8, LBB8_11
; %bb.2:
	mov	x23, #0                         ; =0x0
Lloh126:
	adrp	x21, __ZNSt3__15ctypeIcE2idE@GOTPAGE
Lloh127:
	ldr	x21, [x21, __ZNSt3__15ctypeIcE2idE@GOTPAGEOFF]
	mov	w24, #32                        ; =0x20
LBB8_3:                                 ; =>This Loop Header: Depth=1
                                        ;     Child Loop BB8_5 Depth 2
	ldr	x8, [x20, #16]
	cbz	x8, LBB8_8
; %bb.4:                                ;   in Loop: Header=BB8_3 Depth=1
	mov	x22, #0                         ; =0x0
LBB8_5:                                 ;   Parent Loop BB8_3 Depth=1
                                        ; =>  This Inner Loop Header: Depth=2
	ldr	x8, [x20]
	cbz	x8, LBB8_13
; %bb.6:                                ;   in Loop: Header=BB8_5 Depth=2
	ldr	x9, [x20, #8]
	cmp	x9, x23
	b.ls	LBB8_12
; %bb.7:                                ;   in Loop: Header=BB8_5 Depth=2
	ldr	x8, [x8, x23, lsl #3]
	ldr	w1, [x8, x22, lsl #2]
	mov	x0, x19
	bl	__ZNSt3__113basic_ostreamIcNS_11char_traitsIcEEElsEi
	strb	w24, [sp, #7]
	add	x1, sp, #7
	mov	w2, #1                          ; =0x1
	bl	__ZNSt3__124__put_character_sequenceB8ne200100IcNS_11char_traitsIcEEEERNS_13basic_ostreamIT_T0_EES7_PKS4_m
	add	x22, x22, #1
	ldr	x8, [x20, #16]
	cmp	x22, x8
	b.lo	LBB8_5
LBB8_8:                                 ;   in Loop: Header=BB8_3 Depth=1
	ldr	x8, [x19]
	ldur	x9, [x8, #-24]
	add	x8, sp, #8
	add	x0, x19, x9
	bl	__ZNKSt3__18ios_base6getlocEv
Ltmp344:
	add	x0, sp, #8
	mov	x1, x21
	bl	__ZNKSt3__16locale9use_facetERNS0_2idE
Ltmp345:
; %bb.9:                                ;   in Loop: Header=BB8_3 Depth=1
	ldr	x8, [x0]
	ldr	x8, [x8, #56]
Ltmp346:
	mov	w1, #10                         ; =0xa
	blr	x8
Ltmp347:
; %bb.10:                               ;   in Loop: Header=BB8_3 Depth=1
	mov	x22, x0
	add	x0, sp, #8
	bl	__ZNSt3__16localeD1Ev
	mov	x0, x19
	mov	x1, x22
	bl	__ZNSt3__113basic_ostreamIcNS_11char_traitsIcEEE3putEc
	mov	x0, x19
	bl	__ZNSt3__113basic_ostreamIcNS_11char_traitsIcEEE5flushEv
	add	x23, x23, #1
	ldr	x8, [x20, #8]
	cmp	x23, x8
	b.lo	LBB8_3
LBB8_11:
	mov	x0, x19
	ldp	x29, x30, [sp, #64]             ; 16-byte Folded Reload
	ldp	x20, x19, [sp, #48]             ; 16-byte Folded Reload
	ldp	x22, x21, [sp, #32]             ; 16-byte Folded Reload
	ldp	x24, x23, [sp, #16]             ; 16-byte Folded Reload
	add	sp, sp, #80
	ret
LBB8_12:
	mov	w0, #16                         ; =0x10
	bl	___cxa_allocate_exception
	mov	x19, x0
Ltmp338:
Lloh128:
	adrp	x1, l_.str.130@PAGE
Lloh129:
	add	x1, x1, l_.str.130@PAGEOFF
	bl	__ZNSt13runtime_errorC1EPKc
Ltmp339:
	b	LBB8_14
LBB8_13:
	mov	w0, #16                         ; =0x10
	bl	___cxa_allocate_exception
	mov	x19, x0
Ltmp341:
Lloh130:
	adrp	x1, l_.str.131@PAGE
Lloh131:
	add	x1, x1, l_.str.131@PAGEOFF
	bl	__ZNSt13runtime_errorC1EPKc
Ltmp342:
LBB8_14:
Lloh132:
	adrp	x1, __ZTISt13runtime_error@GOTPAGE
Lloh133:
	ldr	x1, [x1, __ZTISt13runtime_error@GOTPAGEOFF]
Lloh134:
	adrp	x2, __ZNSt13runtime_errorD1Ev@GOTPAGE
Lloh135:
	ldr	x2, [x2, __ZNSt13runtime_errorD1Ev@GOTPAGEOFF]
	mov	x0, x19
	bl	___cxa_throw
LBB8_15:
Ltmp348:
	mov	x20, x0
	add	x0, sp, #8
	bl	__ZNSt3__16localeD1Ev
	mov	x0, x20
	bl	__Unwind_Resume
LBB8_16:
Ltmp343:
	mov	x20, x0
	mov	x0, x19
	bl	___cxa_free_exception
	mov	x0, x20
	bl	__Unwind_Resume
LBB8_17:
Ltmp340:
	mov	x20, x0
	mov	x0, x19
	bl	___cxa_free_exception
	mov	x0, x20
	bl	__Unwind_Resume
	.loh AdrpLdrGot	Lloh126, Lloh127
	.loh AdrpAdd	Lloh128, Lloh129
	.loh AdrpAdd	Lloh130, Lloh131
	.loh AdrpLdrGot	Lloh134, Lloh135
	.loh AdrpLdrGot	Lloh132, Lloh133
Lfunc_end7:
	.cfi_endproc
	.section	__TEXT,__gcc_except_tab
	.p2align	2, 0x0
GCC_except_table8:
Lexception7:
	.byte	255                             ; @LPStart Encoding = omit
	.byte	255                             ; @TType Encoding = omit
	.byte	1                               ; Call site Encoding = uleb128
	.uleb128 Lcst_end7-Lcst_begin7
Lcst_begin7:
	.uleb128 Lfunc_begin7-Lfunc_begin7      ; >> Call Site 1 <<
	.uleb128 Ltmp344-Lfunc_begin7           ;   Call between Lfunc_begin7 and Ltmp344
	.byte	0                               ;     has no landing pad
	.byte	0                               ;   On action: cleanup
	.uleb128 Ltmp344-Lfunc_begin7           ; >> Call Site 2 <<
	.uleb128 Ltmp347-Ltmp344                ;   Call between Ltmp344 and Ltmp347
	.uleb128 Ltmp348-Lfunc_begin7           ;     jumps to Ltmp348
	.byte	0                               ;   On action: cleanup
	.uleb128 Ltmp347-Lfunc_begin7           ; >> Call Site 3 <<
	.uleb128 Ltmp338-Ltmp347                ;   Call between Ltmp347 and Ltmp338
	.byte	0                               ;     has no landing pad
	.byte	0                               ;   On action: cleanup
	.uleb128 Ltmp338-Lfunc_begin7           ; >> Call Site 4 <<
	.uleb128 Ltmp339-Ltmp338                ;   Call between Ltmp338 and Ltmp339
	.uleb128 Ltmp340-Lfunc_begin7           ;     jumps to Ltmp340
	.byte	0                               ;   On action: cleanup
	.uleb128 Ltmp339-Lfunc_begin7           ; >> Call Site 5 <<
	.uleb128 Ltmp341-Ltmp339                ;   Call between Ltmp339 and Ltmp341
	.byte	0                               ;     has no landing pad
	.byte	0                               ;   On action: cleanup
	.uleb128 Ltmp341-Lfunc_begin7           ; >> Call Site 6 <<
	.uleb128 Ltmp342-Ltmp341                ;   Call between Ltmp341 and Ltmp342
	.uleb128 Ltmp343-Lfunc_begin7           ;     jumps to Ltmp343
	.byte	0                               ;   On action: cleanup
	.uleb128 Ltmp342-Lfunc_begin7           ; >> Call Site 7 <<
	.uleb128 Lfunc_end7-Ltmp342             ;   Call between Ltmp342 and Lfunc_end7
	.byte	0                               ;     has no landing pad
	.byte	0                               ;   On action: cleanup
Lcst_end7:
	.p2align	2, 0x0
                                        ; -- End function
	.section	__TEXT,__text,regular,pure_instructions
	.globl	__ZN10playground8Matrix2DIdEixEmm ; -- Begin function _ZN10playground8Matrix2DIdEixEmm
	.weak_def_can_be_hidden	__ZN10playground8Matrix2DIdEixEmm
	.p2align	2
__ZN10playground8Matrix2DIdEixEmm:      ; @_ZN10playground8Matrix2DIdEixEmm
Lfunc_begin8:
	.cfi_startproc
	.cfi_personality 155, ___gxx_personality_v0
	.cfi_lsda 16, Lexception8
; %bb.0:
	stp	x20, x19, [sp, #-32]!           ; 16-byte Folded Spill
	stp	x29, x30, [sp, #16]             ; 16-byte Folded Spill
	add	x29, sp, #16
	.cfi_def_cfa w29, 16
	.cfi_offset w30, -8
	.cfi_offset w29, -16
	.cfi_offset w19, -24
	.cfi_offset w20, -32
	ldr	x8, [x0]
	cbz	x8, LBB9_5
; %bb.1:
	ldr	x9, [x0, #8]
	cmp	x9, x1
	b.ls	LBB9_4
; %bb.2:
	ldr	x9, [x0, #16]
	cmp	x9, x2
	b.ls	LBB9_4
; %bb.3:
	ldr	x8, [x8, x1, lsl #3]
	add	x0, x8, x2, lsl #3
	ldp	x29, x30, [sp, #16]             ; 16-byte Folded Reload
	ldp	x20, x19, [sp], #32             ; 16-byte Folded Reload
	ret
LBB9_4:
	mov	w0, #16                         ; =0x10
	bl	___cxa_allocate_exception
	mov	x19, x0
Ltmp349:
Lloh136:
	adrp	x1, l_.str.130@PAGE
Lloh137:
	add	x1, x1, l_.str.130@PAGEOFF
	bl	__ZNSt13runtime_errorC1EPKc
Ltmp350:
	b	LBB9_6
LBB9_5:
	mov	w0, #16                         ; =0x10
	bl	___cxa_allocate_exception
	mov	x19, x0
Ltmp352:
Lloh138:
	adrp	x1, l_.str.131@PAGE
Lloh139:
	add	x1, x1, l_.str.131@PAGEOFF
	bl	__ZNSt13runtime_errorC1EPKc
Ltmp353:
LBB9_6:
Lloh140:
	adrp	x1, __ZTISt13runtime_error@GOTPAGE
Lloh141:
	ldr	x1, [x1, __ZTISt13runtime_error@GOTPAGEOFF]
Lloh142:
	adrp	x2, __ZNSt13runtime_errorD1Ev@GOTPAGE
Lloh143:
	ldr	x2, [x2, __ZNSt13runtime_errorD1Ev@GOTPAGEOFF]
	mov	x0, x19
	bl	___cxa_throw
LBB9_7:
Ltmp354:
	mov	x20, x0
	mov	x0, x19
	bl	___cxa_free_exception
	mov	x0, x20
	bl	__Unwind_Resume
LBB9_8:
Ltmp351:
	mov	x20, x0
	mov	x0, x19
	bl	___cxa_free_exception
	mov	x0, x20
	bl	__Unwind_Resume
	.loh AdrpAdd	Lloh136, Lloh137
	.loh AdrpAdd	Lloh138, Lloh139
	.loh AdrpLdrGot	Lloh142, Lloh143
	.loh AdrpLdrGot	Lloh140, Lloh141
Lfunc_end8:
	.cfi_endproc
	.section	__TEXT,__gcc_except_tab
	.p2align	2, 0x0
GCC_except_table9:
Lexception8:
	.byte	255                             ; @LPStart Encoding = omit
	.byte	255                             ; @TType Encoding = omit
	.byte	1                               ; Call site Encoding = uleb128
	.uleb128 Lcst_end8-Lcst_begin8
Lcst_begin8:
	.uleb128 Lfunc_begin8-Lfunc_begin8      ; >> Call Site 1 <<
	.uleb128 Ltmp349-Lfunc_begin8           ;   Call between Lfunc_begin8 and Ltmp349
	.byte	0                               ;     has no landing pad
	.byte	0                               ;   On action: cleanup
	.uleb128 Ltmp349-Lfunc_begin8           ; >> Call Site 2 <<
	.uleb128 Ltmp350-Ltmp349                ;   Call between Ltmp349 and Ltmp350
	.uleb128 Ltmp351-Lfunc_begin8           ;     jumps to Ltmp351
	.byte	0                               ;   On action: cleanup
	.uleb128 Ltmp350-Lfunc_begin8           ; >> Call Site 3 <<
	.uleb128 Ltmp352-Ltmp350                ;   Call between Ltmp350 and Ltmp352
	.byte	0                               ;     has no landing pad
	.byte	0                               ;   On action: cleanup
	.uleb128 Ltmp352-Lfunc_begin8           ; >> Call Site 4 <<
	.uleb128 Ltmp353-Ltmp352                ;   Call between Ltmp352 and Ltmp353
	.uleb128 Ltmp354-Lfunc_begin8           ;     jumps to Ltmp354
	.byte	0                               ;   On action: cleanup
	.uleb128 Ltmp353-Lfunc_begin8           ; >> Call Site 5 <<
	.uleb128 Lfunc_end8-Ltmp353             ;   Call between Ltmp353 and Lfunc_end8
	.byte	0                               ;     has no landing pad
	.byte	0                               ;   On action: cleanup
Lcst_end8:
	.p2align	2, 0x0
                                        ; -- End function
	.section	__TEXT,__text,regular,pure_instructions
	.globl	__ZN10playgroundlsERNSt3__113basic_ostreamIcNS0_11char_traitsIcEEEERKNS_8Matrix2DIdEE ; -- Begin function _ZN10playgroundlsERNSt3__113basic_ostreamIcNS0_11char_traitsIcEEEERKNS_8Matrix2DIdEE
	.weak_def_can_be_hidden	__ZN10playgroundlsERNSt3__113basic_ostreamIcNS0_11char_traitsIcEEEERKNS_8Matrix2DIdEE
	.p2align	2
__ZN10playgroundlsERNSt3__113basic_ostreamIcNS0_11char_traitsIcEEEERKNS_8Matrix2DIdEE: ; @_ZN10playgroundlsERNSt3__113basic_ostreamIcNS0_11char_traitsIcEEEERKNS_8Matrix2DIdEE
Lfunc_begin9:
	.cfi_startproc
	.cfi_personality 155, ___gxx_personality_v0
	.cfi_lsda 16, Lexception9
; %bb.0:
	sub	sp, sp, #80
	stp	x24, x23, [sp, #16]             ; 16-byte Folded Spill
	stp	x22, x21, [sp, #32]             ; 16-byte Folded Spill
	stp	x20, x19, [sp, #48]             ; 16-byte Folded Spill
	stp	x29, x30, [sp, #64]             ; 16-byte Folded Spill
	add	x29, sp, #64
	.cfi_def_cfa w29, 16
	.cfi_offset w30, -8
	.cfi_offset w29, -16
	.cfi_offset w19, -24
	.cfi_offset w20, -32
	.cfi_offset w21, -40
	.cfi_offset w22, -48
	.cfi_offset w23, -56
	.cfi_offset w24, -64
	mov	x19, x0
	ldr	x8, [x1]
	cbz	x8, LBB10_11
; %bb.1:
	mov	x20, x1
	ldr	x8, [x1, #8]
	cbz	x8, LBB10_11
; %bb.2:
	mov	x23, #0                         ; =0x0
Lloh144:
	adrp	x21, __ZNSt3__15ctypeIcE2idE@GOTPAGE
Lloh145:
	ldr	x21, [x21, __ZNSt3__15ctypeIcE2idE@GOTPAGEOFF]
	mov	w24, #32                        ; =0x20
LBB10_3:                                ; =>This Loop Header: Depth=1
                                        ;     Child Loop BB10_5 Depth 2
	ldr	x8, [x20, #16]
	cbz	x8, LBB10_8
; %bb.4:                                ;   in Loop: Header=BB10_3 Depth=1
	mov	x22, #0                         ; =0x0
LBB10_5:                                ;   Parent Loop BB10_3 Depth=1
                                        ; =>  This Inner Loop Header: Depth=2
	ldr	x8, [x20]
	cbz	x8, LBB10_13
; %bb.6:                                ;   in Loop: Header=BB10_5 Depth=2
	ldr	x9, [x20, #8]
	cmp	x9, x23
	b.ls	LBB10_12
; %bb.7:                                ;   in Loop: Header=BB10_5 Depth=2
	ldr	x8, [x8, x23, lsl #3]
	ldr	d0, [x8, x22, lsl #3]
	mov	x0, x19
	bl	__ZNSt3__113basic_ostreamIcNS_11char_traitsIcEEElsEd
	strb	w24, [sp, #7]
	add	x1, sp, #7
	mov	w2, #1                          ; =0x1
	bl	__ZNSt3__124__put_character_sequenceB8ne200100IcNS_11char_traitsIcEEEERNS_13basic_ostreamIT_T0_EES7_PKS4_m
	add	x22, x22, #1
	ldr	x8, [x20, #16]
	cmp	x22, x8
	b.lo	LBB10_5
LBB10_8:                                ;   in Loop: Header=BB10_3 Depth=1
	ldr	x8, [x19]
	ldur	x9, [x8, #-24]
	add	x8, sp, #8
	add	x0, x19, x9
	bl	__ZNKSt3__18ios_base6getlocEv
Ltmp361:
	add	x0, sp, #8
	mov	x1, x21
	bl	__ZNKSt3__16locale9use_facetERNS0_2idE
Ltmp362:
; %bb.9:                                ;   in Loop: Header=BB10_3 Depth=1
	ldr	x8, [x0]
	ldr	x8, [x8, #56]
Ltmp363:
	mov	w1, #10                         ; =0xa
	blr	x8
Ltmp364:
; %bb.10:                               ;   in Loop: Header=BB10_3 Depth=1
	mov	x22, x0
	add	x0, sp, #8
	bl	__ZNSt3__16localeD1Ev
	mov	x0, x19
	mov	x1, x22
	bl	__ZNSt3__113basic_ostreamIcNS_11char_traitsIcEEE3putEc
	mov	x0, x19
	bl	__ZNSt3__113basic_ostreamIcNS_11char_traitsIcEEE5flushEv
	add	x23, x23, #1
	ldr	x8, [x20, #8]
	cmp	x23, x8
	b.lo	LBB10_3
LBB10_11:
	mov	x0, x19
	ldp	x29, x30, [sp, #64]             ; 16-byte Folded Reload
	ldp	x20, x19, [sp, #48]             ; 16-byte Folded Reload
	ldp	x22, x21, [sp, #32]             ; 16-byte Folded Reload
	ldp	x24, x23, [sp, #16]             ; 16-byte Folded Reload
	add	sp, sp, #80
	ret
LBB10_12:
	mov	w0, #16                         ; =0x10
	bl	___cxa_allocate_exception
	mov	x19, x0
Ltmp355:
Lloh146:
	adrp	x1, l_.str.130@PAGE
Lloh147:
	add	x1, x1, l_.str.130@PAGEOFF
	bl	__ZNSt13runtime_errorC1EPKc
Ltmp356:
	b	LBB10_14
LBB10_13:
	mov	w0, #16                         ; =0x10
	bl	___cxa_allocate_exception
	mov	x19, x0
Ltmp358:
Lloh148:
	adrp	x1, l_.str.131@PAGE
Lloh149:
	add	x1, x1, l_.str.131@PAGEOFF
	bl	__ZNSt13runtime_errorC1EPKc
Ltmp359:
LBB10_14:
Lloh150:
	adrp	x1, __ZTISt13runtime_error@GOTPAGE
Lloh151:
	ldr	x1, [x1, __ZTISt13runtime_error@GOTPAGEOFF]
Lloh152:
	adrp	x2, __ZNSt13runtime_errorD1Ev@GOTPAGE
Lloh153:
	ldr	x2, [x2, __ZNSt13runtime_errorD1Ev@GOTPAGEOFF]
	mov	x0, x19
	bl	___cxa_throw
LBB10_15:
Ltmp365:
	mov	x20, x0
	add	x0, sp, #8
	bl	__ZNSt3__16localeD1Ev
	mov	x0, x20
	bl	__Unwind_Resume
LBB10_16:
Ltmp360:
	mov	x20, x0
	mov	x0, x19
	bl	___cxa_free_exception
	mov	x0, x20
	bl	__Unwind_Resume
LBB10_17:
Ltmp357:
	mov	x20, x0
	mov	x0, x19
	bl	___cxa_free_exception
	mov	x0, x20
	bl	__Unwind_Resume
	.loh AdrpLdrGot	Lloh144, Lloh145
	.loh AdrpAdd	Lloh146, Lloh147
	.loh AdrpAdd	Lloh148, Lloh149
	.loh AdrpLdrGot	Lloh152, Lloh153
	.loh AdrpLdrGot	Lloh150, Lloh151
Lfunc_end9:
	.cfi_endproc
	.section	__TEXT,__gcc_except_tab
	.p2align	2, 0x0
GCC_except_table10:
Lexception9:
	.byte	255                             ; @LPStart Encoding = omit
	.byte	255                             ; @TType Encoding = omit
	.byte	1                               ; Call site Encoding = uleb128
	.uleb128 Lcst_end9-Lcst_begin9
Lcst_begin9:
	.uleb128 Lfunc_begin9-Lfunc_begin9      ; >> Call Site 1 <<
	.uleb128 Ltmp361-Lfunc_begin9           ;   Call between Lfunc_begin9 and Ltmp361
	.byte	0                               ;     has no landing pad
	.byte	0                               ;   On action: cleanup
	.uleb128 Ltmp361-Lfunc_begin9           ; >> Call Site 2 <<
	.uleb128 Ltmp364-Ltmp361                ;   Call between Ltmp361 and Ltmp364
	.uleb128 Ltmp365-Lfunc_begin9           ;     jumps to Ltmp365
	.byte	0                               ;   On action: cleanup
	.uleb128 Ltmp364-Lfunc_begin9           ; >> Call Site 3 <<
	.uleb128 Ltmp355-Ltmp364                ;   Call between Ltmp364 and Ltmp355
	.byte	0                               ;     has no landing pad
	.byte	0                               ;   On action: cleanup
	.uleb128 Ltmp355-Lfunc_begin9           ; >> Call Site 4 <<
	.uleb128 Ltmp356-Ltmp355                ;   Call between Ltmp355 and Ltmp356
	.uleb128 Ltmp357-Lfunc_begin9           ;     jumps to Ltmp357
	.byte	0                               ;   On action: cleanup
	.uleb128 Ltmp356-Lfunc_begin9           ; >> Call Site 5 <<
	.uleb128 Ltmp358-Ltmp356                ;   Call between Ltmp356 and Ltmp358
	.byte	0                               ;     has no landing pad
	.byte	0                               ;   On action: cleanup
	.uleb128 Ltmp358-Lfunc_begin9           ; >> Call Site 6 <<
	.uleb128 Ltmp359-Ltmp358                ;   Call between Ltmp358 and Ltmp359
	.uleb128 Ltmp360-Lfunc_begin9           ;     jumps to Ltmp360
	.byte	0                               ;   On action: cleanup
	.uleb128 Ltmp359-Lfunc_begin9           ; >> Call Site 7 <<
	.uleb128 Lfunc_end9-Ltmp359             ;   Call between Ltmp359 and Lfunc_end9
	.byte	0                               ;     has no landing pad
	.byte	0                               ;   On action: cleanup
Lcst_end9:
	.p2align	2, 0x0
                                        ; -- End function
	.section	__TEXT,__text,regular,pure_instructions
	.globl	__ZN10playground8Matrix2DIdED1Ev ; -- Begin function _ZN10playground8Matrix2DIdED1Ev
	.weak_def_can_be_hidden	__ZN10playground8Matrix2DIdED1Ev
	.p2align	2
__ZN10playground8Matrix2DIdED1Ev:       ; @_ZN10playground8Matrix2DIdED1Ev
	.cfi_startproc
; %bb.0:
	stp	x22, x21, [sp, #-48]!           ; 16-byte Folded Spill
	stp	x20, x19, [sp, #16]             ; 16-byte Folded Spill
	stp	x29, x30, [sp, #32]             ; 16-byte Folded Spill
	add	x29, sp, #32
	.cfi_def_cfa w29, 16
	.cfi_offset w30, -8
	.cfi_offset w29, -16
	.cfi_offset w19, -24
	.cfi_offset w20, -32
	.cfi_offset w21, -40
	.cfi_offset w22, -48
	ldr	x20, [x0]
	str	xzr, [x0]
	cbz	x20, LBB11_7
; %bb.1:
	mov	x21, x0
	ldr	x8, [x20, #-8]!
	sub	x19, x20, #8
	cbz	x8, LBB11_6
; %bb.2:
	lsl	x22, x8, #3
	b	LBB11_4
LBB11_3:                                ;   in Loop: Header=BB11_4 Depth=1
	subs	x22, x22, #8
	b.eq	LBB11_6
LBB11_4:                                ; =>This Inner Loop Header: Depth=1
	ldr	x0, [x20, x22]
	str	xzr, [x20, x22]
	cbz	x0, LBB11_3
; %bb.5:                                ;   in Loop: Header=BB11_4 Depth=1
	bl	__ZdaPv
	b	LBB11_3
LBB11_6:
	mov	x0, x19
	bl	__ZdaPv
	mov	x0, x21
LBB11_7:
	ldp	x29, x30, [sp, #32]             ; 16-byte Folded Reload
	ldp	x20, x19, [sp, #16]             ; 16-byte Folded Reload
	ldp	x22, x21, [sp], #48             ; 16-byte Folded Reload
	ret
	.cfi_endproc
                                        ; -- End function
	.globl	__ZN10playground8Matrix2DIiED1Ev ; -- Begin function _ZN10playground8Matrix2DIiED1Ev
	.weak_def_can_be_hidden	__ZN10playground8Matrix2DIiED1Ev
	.p2align	2
__ZN10playground8Matrix2DIiED1Ev:       ; @_ZN10playground8Matrix2DIiED1Ev
	.cfi_startproc
; %bb.0:
	stp	x22, x21, [sp, #-48]!           ; 16-byte Folded Spill
	stp	x20, x19, [sp, #16]             ; 16-byte Folded Spill
	stp	x29, x30, [sp, #32]             ; 16-byte Folded Spill
	add	x29, sp, #32
	.cfi_def_cfa w29, 16
	.cfi_offset w30, -8
	.cfi_offset w29, -16
	.cfi_offset w19, -24
	.cfi_offset w20, -32
	.cfi_offset w21, -40
	.cfi_offset w22, -48
	ldr	x20, [x0]
	str	xzr, [x0]
	cbz	x20, LBB12_7
; %bb.1:
	mov	x21, x0
	ldr	x8, [x20, #-8]!
	sub	x19, x20, #8
	cbz	x8, LBB12_6
; %bb.2:
	lsl	x22, x8, #3
	b	LBB12_4
LBB12_3:                                ;   in Loop: Header=BB12_4 Depth=1
	subs	x22, x22, #8
	b.eq	LBB12_6
LBB12_4:                                ; =>This Inner Loop Header: Depth=1
	ldr	x0, [x20, x22]
	str	xzr, [x20, x22]
	cbz	x0, LBB12_3
; %bb.5:                                ;   in Loop: Header=BB12_4 Depth=1
	bl	__ZdaPv
	b	LBB12_3
LBB12_6:
	mov	x0, x19
	bl	__ZdaPv
	mov	x0, x21
LBB12_7:
	ldp	x29, x30, [sp, #32]             ; 16-byte Folded Reload
	ldp	x20, x19, [sp, #16]             ; 16-byte Folded Reload
	ldp	x22, x21, [sp], #48             ; 16-byte Folded Reload
	ret
	.cfi_endproc
                                        ; -- End function
	.section	__TEXT,__literal16,16byte_literals
	.p2align	4, 0x0                          ; -- Begin function _ZN10playground16try_shared_mutexEv
lCPI13_0:
	.quad	1                               ; 0x1
	.quad	2                               ; 0x2
lCPI13_2:
	.quad	256                             ; 0x100
	.quad	0                               ; 0x0
	.section	__TEXT,__literal8,8byte_literals
	.p2align	3, 0x0
lCPI13_1:
	.long	0                               ; 0x0
	.long	30                              ; 0x1e
	.section	__TEXT,__text,regular,pure_instructions
	.globl	__ZN10playground16try_shared_mutexEv
	.p2align	2
__ZN10playground16try_shared_mutexEv:   ; @_ZN10playground16try_shared_mutexEv
Lfunc_begin10:
	.cfi_startproc
	.cfi_personality 155, ___gxx_personality_v0
	.cfi_lsda 16, Lexception10
; %bb.0:
	stp	x24, x23, [sp, #-64]!           ; 16-byte Folded Spill
	stp	x22, x21, [sp, #16]             ; 16-byte Folded Spill
	stp	x20, x19, [sp, #32]             ; 16-byte Folded Spill
	stp	x29, x30, [sp, #48]             ; 16-byte Folded Spill
	add	x29, sp, #48
	sub	sp, sp, #3328
	.cfi_def_cfa w29, 16
	.cfi_offset w30, -8
	.cfi_offset w29, -16
	.cfi_offset w19, -24
	.cfi_offset w20, -32
	.cfi_offset w21, -40
	.cfi_offset w22, -48
	.cfi_offset w23, -56
	.cfi_offset w24, -64
Lloh154:
	adrp	x8, ___stack_chk_guard@GOTPAGE
Lloh155:
	ldr	x8, [x8, ___stack_chk_guard@GOTPAGEOFF]
Lloh156:
	ldr	x8, [x8]
	stur	x8, [x29, #-56]
Ltmp366:
	add	x0, sp, #2792
	bl	__ZNSt3__119__shared_mutex_baseC1Ev
Ltmp367:
; %bb.1:
Ltmp369:
	mov	w0, #6144                       ; =0x1800
	movk	w0, #36621, lsl #16
	bl	__Znwm
Ltmp370:
; %bb.2:
	add	x21, sp, #2960
	mov	w8, #6144                       ; =0x1800
	movk	w8, #36621, lsl #16
	add	x8, x0, x8
	str	x0, [sp, #2664]
	str	x8, [sp, #2680]
Lloh157:
	adrp	x9, lCPI13_0@PAGE
Lloh158:
	ldr	q0, [x9, lCPI13_0@PAGEOFF]
	add	x9, x0, #32
	mov	w10, #41728                     ; =0xa300
	movk	w10, #4577, lsl #16
	mov	w11, #2                         ; =0x2
	dup.2d	v1, x11
	mov	w11, #4                         ; =0x4
	dup.2d	v2, x11
	mov	w11, #6                         ; =0x6
	dup.2d	v3, x11
	mov	w11, #8                         ; =0x8
	dup.2d	v4, x11
LBB13_3:                                ; =>This Inner Loop Header: Depth=1
	add.2d	v5, v0, v1
	add.2d	v6, v0, v2
	add.2d	v7, v0, v3
	stp	q0, q5, [x9, #-32]
	stp	q6, q7, [x9], #64
	add.2d	v0, v0, v4
	subs	x10, x10, #8
	b.ne	LBB13_3
; %bb.4:
	str	x8, [sp, #2672]
	mov	w8, #12                         ; =0xc
	strb	w8, [sp, #3031]
	mov	w8, #25710                      ; =0x646e
	movk	w8, #28015, lsl #16
	str	w8, [sp, #3016]
Lloh159:
	adrp	x8, l_.str.15@PAGE
Lloh160:
	add	x8, x8, l_.str.15@PAGEOFF
Lloh161:
	ldr	x8, [x8]
	str	x8, [sp, #3008]
	strb	wzr, [sp, #3020]
Ltmp372:
	add	x0, sp, #2960
	add	x1, sp, #3008
	bl	__ZNSt3__113random_deviceC1ERKNS_12basic_stringIcNS_11char_traitsIcEENS_9allocatorIcEEEE
Ltmp373:
; %bb.5:
	ldrsb	w8, [sp, #3031]
	tbz	w8, #31, LBB13_7
; %bb.6:
	ldr	x0, [sp, #3008]
	bl	__ZdlPv
LBB13_7:
Ltmp375:
	add	x0, sp, #2960
	bl	__ZNSt3__113random_deviceclEv
Ltmp376:
; %bb.8:
	mov	w8, w0
	str	x8, [sp, #160]
	mov	w9, #1                          ; =0x1
	mov	x10, #32557                     ; =0x7f2d
	movk	x10, #19605, lsl #16
	movk	x10, #62509, lsl #32
	movk	x10, #22609, lsl #48
	add	x11, sp, #160
LBB13_9:                                ; =>This Inner Loop Header: Depth=1
	eor	x8, x8, x8, lsr #62
	madd	x8, x8, x10, x9
	str	x8, [x11, x9, lsl #3]
	add	x9, x9, #1
	cmp	x9, #312
	b.ne	LBB13_9
; %bb.10:
	str	xzr, [sp, #2656]
	add	x0, sp, #2960
	bl	__ZNSt3__113random_deviceD1Ev
Lloh162:
	adrp	x8, lCPI13_1@PAGE
Lloh163:
	ldr	d0, [x8, lCPI13_1@PAGEOFF]
	str	d0, [sp, #152]
	add	x8, sp, #152
	add	x9, sp, #160
	stp	x8, x9, [sp, #104]
	add	x10, sp, #151
	add	x11, sp, #2664
	stp	x10, x11, [sp, #120]
	add	x10, sp, #2792
	str	x10, [sp, #136]
	stp	x8, x9, [sp, #64]
	add	x8, sp, #150
	stp	x8, x11, [sp, #80]
	str	x10, [sp, #96]
	mov	x8, #28532                      ; =0x6f74
	movk	x8, #24948, lsl #16
	movk	x8, #108, lsl #32
	str	x8, [sp, #8]
	mov	w8, #5                          ; =0x5
	strb	w8, [sp, #31]
	add	x8, sp, #63
	add	x9, sp, #104
	stp	x8, x9, [sp, #32]
	add	x8, sp, #64
	str	x8, [sp, #48]
	bl	__ZNSt3__16chrono12steady_clock3nowEv
	mov	x19, x0
	ldrsb	w8, [sp, #31]
	tbnz	w8, #31, LBB13_12
; %bb.11:
	ldur	q0, [sp, #8]
	str	q0, [x21]
	ldr	x8, [sp, #24]
	str	x8, [sp, #2976]
	b	LBB13_13
LBB13_12:
	ldp	x1, x2, [sp, #8]
Ltmp378:
	add	x0, sp, #2960
	bl	__ZNSt3__112basic_stringIcNS_11char_traitsIcEENS_9allocatorIcEEE25__init_copy_ctor_externalEPKcm
Ltmp379:
LBB13_13:
	ldr	x8, [sp, #40]
	ldr	q0, [x8]
	stur	q0, [x21, #72]
	ldr	q0, [x8, #16]
	stur	q0, [x21, #88]
	ldr	x8, [x8, #32]
	str	x8, [sp, #3064]
	mov	x8, #25970                      ; =0x6572
	movk	x8, #25697, lsl #16
	movk	x8, #29285, lsl #32
	movk	x8, #12576, lsl #48
	str	x8, [sp, #3008]
	strb	wzr, [sp, #3016]
	mov	w8, #8                          ; =0x8
	strb	w8, [sp, #3031]
Ltmp381:
	add	x0, sp, #2776
	add	x1, sp, #3008
	bl	__ZNSt3__16threadC1IZZN10playground16try_shared_mutexEvENK3$_2clIZNS2_16try_shared_mutexEvE3$_3EEDaNS_12basic_stringIcNS_11char_traitsIcEENS_9allocatorIcEEEET_EUlvE_JELi0EEEOSD_DpOT0_
Ltmp382:
; %bb.14:
	ldr	x8, [sp, #2776]
	str	x8, [sp, #2784]
	str	xzr, [sp, #2776]
	add	x0, sp, #2776
	bl	__ZNSt3__16threadD1Ev
	ldrsb	w8, [sp, #3031]
	tbz	w8, #31, LBB13_16
; %bb.15:
	ldr	x0, [sp, #3008]
	bl	__ZdlPv
LBB13_16:
	ldr	x8, [sp, #40]
	ldr	q0, [x8]
	stur	q0, [x21, #72]
	ldr	q0, [x8, #16]
	stur	q0, [x21, #88]
	ldr	x8, [x8, #32]
	str	x8, [sp, #3064]
	mov	x8, #25970                      ; =0x6572
	movk	x8, #25697, lsl #16
	movk	x8, #29285, lsl #32
	movk	x8, #12832, lsl #48
	str	x8, [sp, #3008]
	strb	wzr, [sp, #3016]
	mov	w8, #8                          ; =0x8
	strb	w8, [sp, #3031]
Ltmp384:
	add	x0, sp, #2760
	add	x1, sp, #3008
	bl	__ZNSt3__16threadC1IZZN10playground16try_shared_mutexEvENK3$_2clIZNS2_16try_shared_mutexEvE3$_3EEDaNS_12basic_stringIcNS_11char_traitsIcEENS_9allocatorIcEEEET_EUlvE_JELi0EEEOSD_DpOT0_
Ltmp385:
; %bb.17:
	ldr	x8, [sp, #2760]
	str	x8, [sp, #2768]
	str	xzr, [sp, #2760]
	add	x0, sp, #2760
	bl	__ZNSt3__16threadD1Ev
	ldrsb	w8, [sp, #3031]
	tbz	w8, #31, LBB13_19
; %bb.18:
	ldr	x0, [sp, #3008]
	bl	__ZdlPv
LBB13_19:
	ldr	x8, [sp, #48]
	ldr	q0, [x8]
	str	q0, [x21, #48]
	ldr	q0, [x8, #16]
	str	q0, [x21, #64]
	ldr	x8, [x8, #32]
	str	x8, [sp, #3040]
Ltmp387:
	mov	w0, #8                          ; =0x8
	bl	__Znwm
Ltmp388:
; %bb.20:
Ltmp390:
	mov	x20, x0
	bl	__ZNSt3__115__thread_structC1Ev
Ltmp391:
; %bb.21:
	str	x20, [sp, #2720]
Ltmp393:
	mov	w0, #72                         ; =0x48
	bl	__Znwm
Ltmp394:
; %bb.22:
	mov	x3, x0
	str	xzr, [sp, #2720]
	mov	x8, #29303                      ; =0x7277
	movk	x8, #29801, lsl #16
	movk	x8, #29285, lsl #32
	stp	x20, x8, [x0]
	mov	w8, #6                          ; =0x6
	strb	w8, [x0, #31]
	ldp	q0, q1, [x21, #48]
	stp	q0, q1, [x0, #32]
	ldr	x8, [sp, #3040]
	str	x8, [x0, #64]
	str	x0, [sp, #2688]
Ltmp396:
Lloh164:
	adrp	x2, __ZNSt3__114__thread_proxyB8ne200100INS_5tupleIJNS_10unique_ptrINS_15__thread_structENS_14default_deleteIS3_EEEEZZN10playground16try_shared_mutexEvENK3$_2clIZNS7_16try_shared_mutexEvE3$_4EEDaNS_12basic_stringIcNS_11char_traitsIcEENS_9allocatorIcEEEET_EUlvE_EEEEEPvSL_@PAGE
Lloh165:
	add	x2, x2, __ZNSt3__114__thread_proxyB8ne200100INS_5tupleIJNS_10unique_ptrINS_15__thread_structENS_14default_deleteIS3_EEEEZZN10playground16try_shared_mutexEvENK3$_2clIZNS7_16try_shared_mutexEvE3$_4EEDaNS_12basic_stringIcNS_11char_traitsIcEENS_9allocatorIcEEEET_EUlvE_EEEEEPvSL_@PAGEOFF
	add	x0, sp, #2744
	mov	x1, #0                          ; =0x0
	bl	_pthread_create
Ltmp397:
; %bb.23:
	cbnz	w0, LBB13_55
; %bb.24:
	ldr	x20, [sp, #2744]
	str	x20, [sp, #2752]
	str	xzr, [sp, #2744]
	add	x0, sp, #2744
	bl	__ZNSt3__16threadD1Ev
	cbz	x20, LBB13_26
; %bb.25:
Ltmp401:
	add	x0, sp, #2752
	bl	__ZNSt3__16thread4joinEv
Ltmp402:
LBB13_26:
	add	x0, sp, #2752
	bl	__ZNSt3__16threadD1Ev
	ldr	x8, [sp, #2768]
	cbz	x8, LBB13_28
; %bb.27:
Ltmp404:
	add	x0, sp, #2768
	bl	__ZNSt3__16thread4joinEv
Ltmp405:
LBB13_28:
	add	x0, sp, #2768
	bl	__ZNSt3__16threadD1Ev
	ldr	x8, [sp, #2784]
	cbz	x8, LBB13_30
; %bb.29:
Ltmp407:
	add	x0, sp, #2784
	bl	__ZNSt3__16thread4joinEv
Ltmp408:
LBB13_30:
	add	x0, sp, #2784
	bl	__ZNSt3__16threadD1Ev
	ldrsb	w8, [sp, #2983]
	tbz	w8, #31, LBB13_32
; %bb.31:
	ldr	x0, [sp, #2960]
	bl	__ZdlPv
LBB13_32:
	bl	__ZNSt3__16chrono12steady_clock3nowEv
	sub	x8, x0, x19
	str	x8, [sp, #2712]
	ldrb	w8, [sp, #31]
	sxtb	w9, w8
	ldp	x10, x11, [sp, #8]
	cmp	w9, #0
	csel	x8, x11, x8, lt
	add	x9, sp, #8
	csel	x9, x10, x9, lt
	str	x8, [sp, #2968]
	str	x9, [sp, #2960]
	mov	w8, #493                        ; =0x1ed
	str	x8, [sp, #2992]
	add	x9, sp, #2712
Lloh166:
	adrp	x10, __ZZNSt3__124__basic_format_arg_valueINS_20basic_format_contextINS_20back_insert_iteratorINS_8__format15__output_bufferIcEEEEcEEE8__handleC1B8ne200100INS_6chrono8durationIxNS_5ratioILl1ELl1000000000EEEEEEERT_ENUlRNS_26basic_format_parse_contextIcEERS7_PKvE_8__invokeESK_SL_SN_@GOTPAGE
Lloh167:
	ldr	x10, [x10, __ZZNSt3__124__basic_format_arg_valueINS_20basic_format_contextINS_20back_insert_iteratorINS_8__format15__output_bufferIcEEEEcEEE8__handleC1B8ne200100INS_6chrono8durationIxNS_5ratioILl1ELl1000000000EEEEEEERT_ENUlRNS_26basic_format_parse_contextIcEERS7_PKvE_8__invokeESK_SL_SN_@GOTPAGEOFF]
	str	x9, [sp, #2976]
	str	x10, [sp, #2984]
	add	x9, sp, #3008
	add	x23, x9, #40
Lloh168:
	adrp	x9, lCPI13_2@PAGE
Lloh169:
	ldr	q0, [x9, lCPI13_2@PAGEOFF]
	stur	q0, [x21, #56]
Lloh170:
	adrp	x9, __ZNSt3__18__format19__allocating_bufferIcE15__prepare_writeB8ne200100ERNS0_15__output_bufferIcEEm@PAGE
Lloh171:
	add	x9, x9, __ZNSt3__18__format19__allocating_bufferIcE15__prepare_writeB8ne200100ERNS0_15__output_bufferIcEEm@PAGEOFF
	str	x23, [sp, #3008]
	str	x9, [sp, #3032]
	str	xzr, [sp, #3040]
	str	x23, [sp, #3304]
	mov	w9, #2                          ; =0x2
	add	x10, sp, #2960
	str	x9, [sp, #2720]
	str	x10, [sp, #2728]
	str	x8, [sp, #2736]
Ltmp410:
Lloh172:
	adrp	x1, l_.str.16@PAGE
Lloh173:
	add	x1, x1, l_.str.16@PAGEOFF
	add	x0, sp, #3008
	add	x3, sp, #2720
	mov	w2, #17                         ; =0x11
	bl	__ZNSt3__112__vformat_toB8ne200100INS_20back_insert_iteratorINS_8__format15__output_bufferIcEEEEcS5_EET_S6_NS_17basic_string_viewIT0_NS_11char_traitsIS8_EEEENS_17basic_format_argsINS_20basic_format_contextIT1_S8_EEEE
Ltmp411:
; %bb.33:
	ldr	x19, [sp, #3024]
	mov	x8, #9223372036854775800        ; =0x7ffffffffffffff8
	cmp	x19, x8
	b.hs	LBB13_56
; %bb.34:
	ldr	x20, [sp, #3304]
	cmp	x19, #23
	b.hs	LBB13_50
; %bb.35:
	strb	w19, [sp, #2711]
	add	x21, sp, #2688
	cbnz	x19, LBB13_52
; %bb.36:
	strb	wzr, [x21, x19]
	ldr	x0, [sp, #3304]
	cmp	x0, x23
	b.eq	LBB13_38
LBB13_37:
	bl	__ZdlPv
LBB13_38:
	ldrb	w8, [sp, #2711]
	sxtb	w9, w8
	ldr	x10, [sp, #2688]
	ldr	x11, [sp, #2696]
	cmp	w9, #0
	add	x9, sp, #2688
	csel	x1, x10, x9, lt
	csel	x2, x11, x8, lt
Ltmp415:
Lloh174:
	adrp	x0, __ZNSt3__14coutE@GOTPAGE
Lloh175:
	ldr	x0, [x0, __ZNSt3__14coutE@GOTPAGEOFF]
	bl	__ZNSt3__124__put_character_sequenceB8ne200100IcNS_11char_traitsIcEEEERNS_13basic_ostreamIT_T0_EES7_PKS4_m
Ltmp416:
; %bb.39:
	mov	x19, x0
	ldr	x8, [x0]
	ldur	x9, [x8, #-24]
Ltmp417:
	add	x8, sp, #3008
	add	x0, x0, x9
	bl	__ZNKSt3__18ios_base6getlocEv
Ltmp418:
; %bb.40:
Ltmp419:
Lloh176:
	adrp	x1, __ZNSt3__15ctypeIcE2idE@GOTPAGE
Lloh177:
	ldr	x1, [x1, __ZNSt3__15ctypeIcE2idE@GOTPAGEOFF]
	add	x0, sp, #3008
	bl	__ZNKSt3__16locale9use_facetERNS0_2idE
Ltmp420:
; %bb.41:
	ldr	x8, [x0]
	ldr	x8, [x8, #56]
Ltmp421:
	mov	w1, #10                         ; =0xa
	blr	x8
Ltmp422:
; %bb.42:
	mov	x20, x0
	add	x0, sp, #3008
	bl	__ZNSt3__16localeD1Ev
Ltmp424:
	mov	x0, x19
	mov	x1, x20
	bl	__ZNSt3__113basic_ostreamIcNS_11char_traitsIcEEE3putEc
Ltmp425:
; %bb.43:
Ltmp426:
	mov	x0, x19
	bl	__ZNSt3__113basic_ostreamIcNS_11char_traitsIcEEE5flushEv
Ltmp427:
; %bb.44:
	ldrsb	w8, [sp, #2711]
	tbnz	w8, #31, LBB13_53
; %bb.45:
	ldrsb	w8, [sp, #31]
	tbnz	w8, #31, LBB13_54
LBB13_46:
	ldr	x0, [sp, #2664]
	cbz	x0, LBB13_48
LBB13_47:
	str	x0, [sp, #2672]
	bl	__ZdlPv
LBB13_48:
	add	x19, sp, #2792
	add	x0, x19, #112
	bl	__ZNSt3__118condition_variableD1Ev
	add	x0, x19, #64
	bl	__ZNSt3__118condition_variableD1Ev
	add	x0, sp, #2792
	bl	__ZNSt3__15mutexD1Ev
	ldur	x8, [x29, #-56]
Lloh178:
	adrp	x9, ___stack_chk_guard@GOTPAGE
Lloh179:
	ldr	x9, [x9, ___stack_chk_guard@GOTPAGEOFF]
Lloh180:
	ldr	x9, [x9]
	cmp	x9, x8
	b.ne	LBB13_58
; %bb.49:
	add	sp, sp, #3328
	ldp	x29, x30, [sp, #48]             ; 16-byte Folded Reload
	ldp	x20, x19, [sp, #32]             ; 16-byte Folded Reload
	ldp	x22, x21, [sp, #16]             ; 16-byte Folded Reload
	ldp	x24, x23, [sp], #64             ; 16-byte Folded Reload
	ret
LBB13_50:
	orr	x8, x19, #0x7
	cmp	x8, #23
	mov	w9, #25                         ; =0x19
	csinc	x22, x9, x8, eq
Ltmp413:
	mov	x0, x22
	bl	__Znwm
Ltmp414:
; %bb.51:
	mov	x21, x0
	orr	x8, x22, #0x8000000000000000
	str	x8, [sp, #2704]
	str	x0, [sp, #2688]
	str	x19, [sp, #2696]
LBB13_52:
	mov	x0, x21
	mov	x1, x20
	mov	x2, x19
	bl	_memmove
	strb	wzr, [x21, x19]
	ldr	x0, [sp, #3304]
	cmp	x0, x23
	b.ne	LBB13_37
	b	LBB13_38
LBB13_53:
	ldr	x0, [sp, #2688]
	bl	__ZdlPv
	ldrsb	w8, [sp, #31]
	tbz	w8, #31, LBB13_46
LBB13_54:
	ldr	x0, [sp, #8]
	bl	__ZdlPv
	ldr	x0, [sp, #2664]
	cbnz	x0, LBB13_47
	b	LBB13_48
LBB13_55:
Ltmp398:
Lloh181:
	adrp	x1, l_.str.14@PAGE
Lloh182:
	add	x1, x1, l_.str.14@PAGEOFF
	bl	__ZNSt3__120__throw_system_errorEiPKc
Ltmp399:
	b	LBB13_57
LBB13_56:
Ltmp429:
	bl	__ZNSt3__112basic_stringIcNS_11char_traitsIcEENS_9allocatorIcEEE20__throw_length_errorB8ne200100Ev
Ltmp430:
LBB13_57:
	brk	#0x1
LBB13_58:
	bl	___stack_chk_fail
LBB13_59:
Ltmp380:
	mov	x19, x0
	b	LBB13_92
LBB13_60:
Ltmp409:
	b	LBB13_63
LBB13_61:
Ltmp406:
	b	LBB13_63
LBB13_62:
Ltmp403:
LBB13_63:
	mov	x19, x0
	cbz	w1, LBB13_78
; %bb.64:
	mov	x0, x19
	bl	___clang_call_terminate
LBB13_65:
Ltmp412:
	b	LBB13_80
LBB13_66:
Ltmp395:
	mov	x19, x0
	b	LBB13_83
LBB13_67:
Ltmp392:
	mov	x19, x0
	mov	x0, x20
	bl	__ZdlPv
	b	LBB13_84
LBB13_68:
Ltmp389:
	mov	x19, x0
	b	LBB13_84
LBB13_69:
Ltmp386:
	mov	x19, x0
	ldrsb	w8, [sp, #3031]
	tbz	w8, #31, LBB13_85
; %bb.70:
	ldr	x0, [sp, #3008]
	bl	__ZdlPv
	b	LBB13_85
LBB13_71:
Ltmp383:
	mov	x19, x0
	ldrsb	w8, [sp, #3031]
	tbz	w8, #31, LBB13_86
; %bb.72:
	ldr	x0, [sp, #3008]
	bl	__ZdlPv
	b	LBB13_86
LBB13_73:
Ltmp377:
	mov	x19, x0
	add	x0, sp, #2960
	bl	__ZNSt3__113random_deviceD1Ev
	b	LBB13_95
LBB13_74:
Ltmp374:
	mov	x19, x0
	ldrsb	w8, [sp, #3031]
	tbz	w8, #31, LBB13_95
; %bb.75:
	ldr	x0, [sp, #3008]
	b	LBB13_94
LBB13_76:
Ltmp371:
	mov	x19, x0
	add	x0, sp, #2792
	bl	__ZNSt3__112shared_mutexD1B8ne200100Ev
	mov	x0, x19
	bl	__Unwind_Resume
LBB13_77:
Ltmp368:
	mov	x19, x0
LBB13_78:
	mov	x0, x19
	bl	__Unwind_Resume
LBB13_79:
Ltmp431:
LBB13_80:
	mov	x19, x0
	ldr	x0, [sp, #3304]
	cmp	x0, x23
	b.ne	LBB13_91
	b	LBB13_92
LBB13_81:
Ltmp423:
	mov	x19, x0
	add	x0, sp, #3008
	bl	__ZNSt3__16localeD1Ev
	b	LBB13_89
LBB13_82:
Ltmp400:
	mov	x19, x0
	add	x0, sp, #2688
	bl	__ZNSt3__110unique_ptrINS_5tupleIJNS0_INS_15__thread_structENS_14default_deleteIS2_EEEEZZN10playground16try_shared_mutexEvENK3$_2clIZNS6_16try_shared_mutexEvE3$_4EEDaNS_12basic_stringIcNS_11char_traitsIcEENS_9allocatorIcEEEET_EUlvE_EEENS3_ISJ_EEED1B8ne200100Ev
LBB13_83:
	add	x0, sp, #2720
	bl	__ZNSt3__110unique_ptrINS_15__thread_structENS_14default_deleteIS1_EEED1B8ne200100Ev
LBB13_84:
	add	x0, sp, #2768
	bl	__ZN10playground14guarded_threadD1Ev
LBB13_85:
	add	x0, sp, #2784
	bl	__ZN10playground14guarded_threadD1Ev
LBB13_86:
	ldrsb	w8, [sp, #2983]
	tbz	w8, #31, LBB13_92
; %bb.87:
	ldr	x0, [sp, #2960]
	b	LBB13_91
LBB13_88:
Ltmp428:
	mov	x19, x0
LBB13_89:
	ldrsb	w8, [sp, #2711]
	tbz	w8, #31, LBB13_92
; %bb.90:
	ldr	x0, [sp, #2688]
LBB13_91:
	bl	__ZdlPv
LBB13_92:
	ldrsb	w8, [sp, #31]
	tbz	w8, #31, LBB13_95
; %bb.93:
	ldr	x0, [sp, #8]
LBB13_94:
	bl	__ZdlPv
LBB13_95:
	ldr	x0, [sp, #2664]
	cbz	x0, LBB13_97
; %bb.96:
	str	x0, [sp, #2672]
	bl	__ZdlPv
LBB13_97:
	add	x0, sp, #2792
	bl	__ZNSt3__112shared_mutexD1B8ne200100Ev
	mov	x0, x19
	bl	__Unwind_Resume
	.loh AdrpLdrGotLdr	Lloh154, Lloh155, Lloh156
	.loh AdrpLdr	Lloh157, Lloh158
	.loh AdrpAddLdr	Lloh159, Lloh160, Lloh161
	.loh AdrpLdr	Lloh162, Lloh163
	.loh AdrpAdd	Lloh164, Lloh165
	.loh AdrpAdd	Lloh172, Lloh173
	.loh AdrpAdd	Lloh170, Lloh171
	.loh AdrpAdrp	Lloh168, Lloh170
	.loh AdrpLdr	Lloh168, Lloh169
	.loh AdrpLdrGot	Lloh166, Lloh167
	.loh AdrpLdrGot	Lloh174, Lloh175
	.loh AdrpLdrGot	Lloh176, Lloh177
	.loh AdrpLdrGotLdr	Lloh178, Lloh179, Lloh180
	.loh AdrpAdd	Lloh181, Lloh182
Lfunc_end10:
	.cfi_endproc
	.section	__TEXT,__gcc_except_tab
	.p2align	2, 0x0
GCC_except_table13:
Lexception10:
	.byte	255                             ; @LPStart Encoding = omit
	.byte	155                             ; @TType Encoding = indirect pcrel sdata4
	.uleb128 Lttbase5-Lttbaseref5
Lttbaseref5:
	.byte	1                               ; Call site Encoding = uleb128
	.uleb128 Lcst_end10-Lcst_begin10
Lcst_begin10:
	.uleb128 Ltmp366-Lfunc_begin10          ; >> Call Site 1 <<
	.uleb128 Ltmp367-Ltmp366                ;   Call between Ltmp366 and Ltmp367
	.uleb128 Ltmp368-Lfunc_begin10          ;     jumps to Ltmp368
	.byte	0                               ;   On action: cleanup
	.uleb128 Ltmp369-Lfunc_begin10          ; >> Call Site 2 <<
	.uleb128 Ltmp370-Ltmp369                ;   Call between Ltmp369 and Ltmp370
	.uleb128 Ltmp371-Lfunc_begin10          ;     jumps to Ltmp371
	.byte	0                               ;   On action: cleanup
	.uleb128 Ltmp372-Lfunc_begin10          ; >> Call Site 3 <<
	.uleb128 Ltmp373-Ltmp372                ;   Call between Ltmp372 and Ltmp373
	.uleb128 Ltmp374-Lfunc_begin10          ;     jumps to Ltmp374
	.byte	0                               ;   On action: cleanup
	.uleb128 Ltmp375-Lfunc_begin10          ; >> Call Site 4 <<
	.uleb128 Ltmp376-Ltmp375                ;   Call between Ltmp375 and Ltmp376
	.uleb128 Ltmp377-Lfunc_begin10          ;     jumps to Ltmp377
	.byte	0                               ;   On action: cleanup
	.uleb128 Ltmp378-Lfunc_begin10          ; >> Call Site 5 <<
	.uleb128 Ltmp379-Ltmp378                ;   Call between Ltmp378 and Ltmp379
	.uleb128 Ltmp380-Lfunc_begin10          ;     jumps to Ltmp380
	.byte	0                               ;   On action: cleanup
	.uleb128 Ltmp381-Lfunc_begin10          ; >> Call Site 6 <<
	.uleb128 Ltmp382-Ltmp381                ;   Call between Ltmp381 and Ltmp382
	.uleb128 Ltmp383-Lfunc_begin10          ;     jumps to Ltmp383
	.byte	0                               ;   On action: cleanup
	.uleb128 Ltmp384-Lfunc_begin10          ; >> Call Site 7 <<
	.uleb128 Ltmp385-Ltmp384                ;   Call between Ltmp384 and Ltmp385
	.uleb128 Ltmp386-Lfunc_begin10          ;     jumps to Ltmp386
	.byte	0                               ;   On action: cleanup
	.uleb128 Ltmp387-Lfunc_begin10          ; >> Call Site 8 <<
	.uleb128 Ltmp388-Ltmp387                ;   Call between Ltmp387 and Ltmp388
	.uleb128 Ltmp389-Lfunc_begin10          ;     jumps to Ltmp389
	.byte	0                               ;   On action: cleanup
	.uleb128 Ltmp390-Lfunc_begin10          ; >> Call Site 9 <<
	.uleb128 Ltmp391-Ltmp390                ;   Call between Ltmp390 and Ltmp391
	.uleb128 Ltmp392-Lfunc_begin10          ;     jumps to Ltmp392
	.byte	0                               ;   On action: cleanup
	.uleb128 Ltmp393-Lfunc_begin10          ; >> Call Site 10 <<
	.uleb128 Ltmp394-Ltmp393                ;   Call between Ltmp393 and Ltmp394
	.uleb128 Ltmp395-Lfunc_begin10          ;     jumps to Ltmp395
	.byte	0                               ;   On action: cleanup
	.uleb128 Ltmp396-Lfunc_begin10          ; >> Call Site 11 <<
	.uleb128 Ltmp397-Ltmp396                ;   Call between Ltmp396 and Ltmp397
	.uleb128 Ltmp400-Lfunc_begin10          ;     jumps to Ltmp400
	.byte	0                               ;   On action: cleanup
	.uleb128 Ltmp401-Lfunc_begin10          ; >> Call Site 12 <<
	.uleb128 Ltmp402-Ltmp401                ;   Call between Ltmp401 and Ltmp402
	.uleb128 Ltmp403-Lfunc_begin10          ;     jumps to Ltmp403
	.byte	5                               ;   On action: 3
	.uleb128 Ltmp404-Lfunc_begin10          ; >> Call Site 13 <<
	.uleb128 Ltmp405-Ltmp404                ;   Call between Ltmp404 and Ltmp405
	.uleb128 Ltmp406-Lfunc_begin10          ;     jumps to Ltmp406
	.byte	5                               ;   On action: 3
	.uleb128 Ltmp407-Lfunc_begin10          ; >> Call Site 14 <<
	.uleb128 Ltmp408-Ltmp407                ;   Call between Ltmp407 and Ltmp408
	.uleb128 Ltmp409-Lfunc_begin10          ;     jumps to Ltmp409
	.byte	5                               ;   On action: 3
	.uleb128 Ltmp410-Lfunc_begin10          ; >> Call Site 15 <<
	.uleb128 Ltmp411-Ltmp410                ;   Call between Ltmp410 and Ltmp411
	.uleb128 Ltmp412-Lfunc_begin10          ;     jumps to Ltmp412
	.byte	0                               ;   On action: cleanup
	.uleb128 Ltmp415-Lfunc_begin10          ; >> Call Site 16 <<
	.uleb128 Ltmp418-Ltmp415                ;   Call between Ltmp415 and Ltmp418
	.uleb128 Ltmp428-Lfunc_begin10          ;     jumps to Ltmp428
	.byte	0                               ;   On action: cleanup
	.uleb128 Ltmp419-Lfunc_begin10          ; >> Call Site 17 <<
	.uleb128 Ltmp422-Ltmp419                ;   Call between Ltmp419 and Ltmp422
	.uleb128 Ltmp423-Lfunc_begin10          ;     jumps to Ltmp423
	.byte	0                               ;   On action: cleanup
	.uleb128 Ltmp424-Lfunc_begin10          ; >> Call Site 18 <<
	.uleb128 Ltmp427-Ltmp424                ;   Call between Ltmp424 and Ltmp427
	.uleb128 Ltmp428-Lfunc_begin10          ;     jumps to Ltmp428
	.byte	0                               ;   On action: cleanup
	.uleb128 Ltmp413-Lfunc_begin10          ; >> Call Site 19 <<
	.uleb128 Ltmp414-Ltmp413                ;   Call between Ltmp413 and Ltmp414
	.uleb128 Ltmp431-Lfunc_begin10          ;     jumps to Ltmp431
	.byte	0                               ;   On action: cleanup
	.uleb128 Ltmp414-Lfunc_begin10          ; >> Call Site 20 <<
	.uleb128 Ltmp398-Ltmp414                ;   Call between Ltmp414 and Ltmp398
	.byte	0                               ;     has no landing pad
	.byte	0                               ;   On action: cleanup
	.uleb128 Ltmp398-Lfunc_begin10          ; >> Call Site 21 <<
	.uleb128 Ltmp399-Ltmp398                ;   Call between Ltmp398 and Ltmp399
	.uleb128 Ltmp400-Lfunc_begin10          ;     jumps to Ltmp400
	.byte	0                               ;   On action: cleanup
	.uleb128 Ltmp429-Lfunc_begin10          ; >> Call Site 22 <<
	.uleb128 Ltmp430-Ltmp429                ;   Call between Ltmp429 and Ltmp430
	.uleb128 Ltmp431-Lfunc_begin10          ;     jumps to Ltmp431
	.byte	0                               ;   On action: cleanup
	.uleb128 Ltmp430-Lfunc_begin10          ; >> Call Site 23 <<
	.uleb128 Lfunc_end10-Ltmp430            ;   Call between Ltmp430 and Lfunc_end10
	.byte	0                               ;     has no landing pad
	.byte	0                               ;   On action: cleanup
Lcst_end10:
	.byte	0                               ; >> Action Record 1 <<
                                        ;   Cleanup
	.byte	0                               ;   No further actions
	.byte	0                               ; >> Action Record 2 <<
                                        ;   Cleanup
	.byte	125                             ;   Continue to action 1
	.byte	1                               ; >> Action Record 3 <<
                                        ;   Catch TypeInfo 1
	.byte	125                             ;   Continue to action 2
	.p2align	2, 0x0
                                        ; >> Catch TypeInfos <<
	.long	0                               ; TypeInfo 1
Lttbase5:
	.p2align	2, 0x0
                                        ; -- End function
	.section	__TEXT,__text,regular,pure_instructions
	.private_extern	__ZNSt3__112shared_mutexD1B8ne200100Ev ; -- Begin function _ZNSt3__112shared_mutexD1B8ne200100Ev
	.globl	__ZNSt3__112shared_mutexD1B8ne200100Ev
	.weak_def_can_be_hidden	__ZNSt3__112shared_mutexD1B8ne200100Ev
	.p2align	2
__ZNSt3__112shared_mutexD1B8ne200100Ev: ; @_ZNSt3__112shared_mutexD1B8ne200100Ev
	.cfi_startproc
; %bb.0:
	stp	x20, x19, [sp, #-32]!           ; 16-byte Folded Spill
	stp	x29, x30, [sp, #16]             ; 16-byte Folded Spill
	add	x29, sp, #16
	.cfi_def_cfa w29, 16
	.cfi_offset w30, -8
	.cfi_offset w29, -16
	.cfi_offset w19, -24
	.cfi_offset w20, -32
	mov	x19, x0
	add	x0, x0, #112
	bl	__ZNSt3__118condition_variableD1Ev
	add	x0, x19, #64
	bl	__ZNSt3__118condition_variableD1Ev
	mov	x0, x19
	ldp	x29, x30, [sp, #16]             ; 16-byte Folded Reload
	ldp	x20, x19, [sp], #32             ; 16-byte Folded Reload
	b	__ZNSt3__15mutexD1Ev
	.cfi_endproc
                                        ; -- End function
	.globl	__ZN10playground22try_condition_variableEv ; -- Begin function _ZN10playground22try_condition_variableEv
	.p2align	2
__ZN10playground22try_condition_variableEv: ; @_ZN10playground22try_condition_variableEv
Lfunc_begin11:
	.cfi_startproc
	.cfi_personality 155, ___gxx_personality_v0
	.cfi_lsda 16, Lexception11
; %bb.0:
	sub	sp, sp, #208
	stp	x20, x19, [sp, #176]            ; 16-byte Folded Spill
	stp	x29, x30, [sp, #192]            ; 16-byte Folded Spill
	add	x29, sp, #192
	.cfi_def_cfa w29, 16
	.cfi_offset w30, -8
	.cfi_offset w29, -16
	.cfi_offset w19, -24
	.cfi_offset w20, -32
Lloh183:
	adrp	x8, ___stack_chk_guard@GOTPAGE
Lloh184:
	ldr	x8, [x8, ___stack_chk_guard@GOTPAGEOFF]
Lloh185:
	ldr	x8, [x8]
	stur	x8, [x29, #-24]
	sub	x8, x29, #72
	movi.2d	v0, #0000000000000000
	stur	q0, [x8, #8]
	mov	w9, #45499                      ; =0xb1bb
	movk	w9, #15536, lsl #16
	stur	q0, [x8, #24]
	stur	x9, [x29, #-72]
	stur	xzr, [x29, #-32]
	strb	wzr, [sp, #32]
	strb	wzr, [sp, #36]
	mov	w8, #43943                      ; =0xaba7
	movk	w8, #12970, lsl #16
	str	x8, [sp, #56]
	stp	q0, q0, [sp, #64]
	stur	q0, [sp, #96]
	str	xzr, [sp, #112]
Ltmp432:
	mov	w0, #8                          ; =0x8
	bl	__Znwm
Ltmp433:
; %bb.1:
Ltmp435:
	mov	x19, x0
	bl	__ZNSt3__115__thread_structC1Ev
Ltmp436:
; %bb.2:
	str	x19, [sp, #48]
Ltmp438:
	mov	w0, #32                         ; =0x20
	bl	__Znwm
Ltmp439:
; %bb.3:
	mov	x3, x0
	stp	x0, xzr, [sp, #40]
	add	x8, sp, #56
	stp	x19, x8, [x0]
	sub	x8, x29, #72
	add	x9, sp, #32
	stp	x8, x9, [x0, #16]
Ltmp441:
Lloh186:
	adrp	x2, __ZNSt3__114__thread_proxyB8ne200100INS_5tupleIJNS_10unique_ptrINS_15__thread_structENS_14default_deleteIS3_EEEEZN10playground22try_condition_variableEvE3$_0EEEEEPvSA_@PAGE
Lloh187:
	add	x2, x2, __ZNSt3__114__thread_proxyB8ne200100INS_5tupleIJNS_10unique_ptrINS_15__thread_structENS_14default_deleteIS3_EEEEZN10playground22try_condition_variableEvE3$_0EEEEEPvSA_@PAGEOFF
	add	x0, sp, #16
	mov	x1, #0                          ; =0x0
	bl	_pthread_create
Ltmp442:
; %bb.4:
	cbnz	w0, LBB15_16
; %bb.5:
	ldr	x8, [sp, #16]
	stp	xzr, x8, [sp, #16]
	add	x0, sp, #16
	bl	__ZNSt3__16threadD1Ev
Ltmp446:
	mov	w0, #8                          ; =0x8
	bl	__Znwm
Ltmp447:
; %bb.6:
Ltmp449:
	mov	x19, x0
	bl	__ZNSt3__115__thread_structC1Ev
Ltmp450:
; %bb.7:
	str	x19, [sp, #48]
Ltmp452:
	mov	w0, #32                         ; =0x20
	bl	__Znwm
Ltmp453:
; %bb.8:
	mov	x3, x0
	stp	x0, xzr, [sp, #40]
	add	x8, sp, #56
	stp	x19, x8, [x0]
	add	x8, sp, #32
	sub	x9, x29, #72
	stp	x8, x9, [x0, #16]
Ltmp455:
Lloh188:
	adrp	x2, __ZNSt3__114__thread_proxyB8ne200100INS_5tupleIJNS_10unique_ptrINS_15__thread_structENS_14default_deleteIS3_EEEEZN10playground22try_condition_variableEvE3$_1EEEEEPvSA_@PAGE
Lloh189:
	add	x2, x2, __ZNSt3__114__thread_proxyB8ne200100INS_5tupleIJNS_10unique_ptrINS_15__thread_structENS_14default_deleteIS3_EEEEZN10playground22try_condition_variableEvE3$_1EEEEEPvSA_@PAGEOFF
	mov	x0, sp
	mov	x1, #0                          ; =0x0
	bl	_pthread_create
Ltmp456:
; %bb.9:
	cbnz	w0, LBB15_17
; %bb.10:
	ldr	x19, [sp]
	stp	xzr, x19, [sp]
	mov	x0, sp
	bl	__ZNSt3__16threadD1Ev
	cbz	x19, LBB15_12
; %bb.11:
Ltmp460:
	add	x0, sp, #8
	bl	__ZNSt3__16thread4joinEv
Ltmp461:
LBB15_12:
	add	x0, sp, #8
	bl	__ZNSt3__16threadD1Ev
	ldr	x8, [sp, #24]
	cbz	x8, LBB15_14
; %bb.13:
Ltmp463:
	add	x0, sp, #24
	bl	__ZNSt3__16thread4joinEv
Ltmp464:
LBB15_14:
	add	x0, sp, #24
	bl	__ZNSt3__16threadD1Ev
	add	x0, sp, #56
	bl	__ZNSt3__15mutexD1Ev
	sub	x0, x29, #72
	bl	__ZNSt3__118condition_variableD1Ev
	ldur	x8, [x29, #-24]
Lloh190:
	adrp	x9, ___stack_chk_guard@GOTPAGE
Lloh191:
	ldr	x9, [x9, ___stack_chk_guard@GOTPAGEOFF]
Lloh192:
	ldr	x9, [x9]
	cmp	x9, x8
	b.ne	LBB15_19
; %bb.15:
	ldp	x29, x30, [sp, #192]            ; 16-byte Folded Reload
	ldp	x20, x19, [sp, #176]            ; 16-byte Folded Reload
	add	sp, sp, #208
	ret
LBB15_16:
Ltmp443:
Lloh193:
	adrp	x1, l_.str.14@PAGE
Lloh194:
	add	x1, x1, l_.str.14@PAGEOFF
	bl	__ZNSt3__120__throw_system_errorEiPKc
Ltmp444:
	b	LBB15_18
LBB15_17:
Ltmp457:
Lloh195:
	adrp	x1, l_.str.14@PAGE
Lloh196:
	add	x1, x1, l_.str.14@PAGEOFF
	bl	__ZNSt3__120__throw_system_errorEiPKc
Ltmp458:
LBB15_18:
	brk	#0x1
LBB15_19:
	bl	___stack_chk_fail
LBB15_20:
Ltmp465:
	b	LBB15_22
LBB15_21:
Ltmp462:
LBB15_22:
	mov	x19, x0
	cbz	w1, LBB15_36
; %bb.23:
	mov	x0, x19
	bl	___clang_call_terminate
LBB15_24:
Ltmp454:
	mov	x19, x0
	b	LBB15_31
LBB15_25:
Ltmp451:
	mov	x8, x19
	mov	x19, x0
	mov	x0, x8
	bl	__ZdlPv
	b	LBB15_32
LBB15_26:
Ltmp448:
	mov	x19, x0
	b	LBB15_32
LBB15_27:
Ltmp440:
	mov	x19, x0
	b	LBB15_34
LBB15_28:
Ltmp437:
	mov	x8, x19
	mov	x19, x0
	mov	x0, x8
	bl	__ZdlPv
	b	LBB15_35
LBB15_29:
Ltmp434:
	mov	x19, x0
	b	LBB15_35
LBB15_30:
Ltmp459:
	mov	x19, x0
	add	x0, sp, #40
	bl	__ZNSt3__110unique_ptrINS_5tupleIJNS0_INS_15__thread_structENS_14default_deleteIS2_EEEEZN10playground22try_condition_variableEvE3$_1EEENS3_IS8_EEED1B8ne200100Ev
LBB15_31:
	add	x0, sp, #48
	bl	__ZNSt3__110unique_ptrINS_15__thread_structENS_14default_deleteIS1_EEED1B8ne200100Ev
LBB15_32:
	add	x0, sp, #24
	bl	__ZN10playground14guarded_threadD1Ev
	b	LBB15_35
LBB15_33:
Ltmp445:
	mov	x19, x0
	add	x0, sp, #40
	bl	__ZNSt3__110unique_ptrINS_5tupleIJNS0_INS_15__thread_structENS_14default_deleteIS2_EEEEZN10playground22try_condition_variableEvE3$_0EEENS3_IS8_EEED1B8ne200100Ev
LBB15_34:
	add	x0, sp, #48
	bl	__ZNSt3__110unique_ptrINS_15__thread_structENS_14default_deleteIS1_EEED1B8ne200100Ev
LBB15_35:
	add	x0, sp, #56
	bl	__ZNSt3__15mutexD1Ev
	sub	x0, x29, #72
	bl	__ZNSt3__118condition_variableD1Ev
LBB15_36:
	mov	x0, x19
	bl	__Unwind_Resume
	.loh AdrpLdrGotLdr	Lloh183, Lloh184, Lloh185
	.loh AdrpAdd	Lloh186, Lloh187
	.loh AdrpAdd	Lloh188, Lloh189
	.loh AdrpLdrGotLdr	Lloh190, Lloh191, Lloh192
	.loh AdrpAdd	Lloh193, Lloh194
	.loh AdrpAdd	Lloh195, Lloh196
Lfunc_end11:
	.cfi_endproc
	.section	__TEXT,__gcc_except_tab
	.p2align	2, 0x0
GCC_except_table15:
Lexception11:
	.byte	255                             ; @LPStart Encoding = omit
	.byte	155                             ; @TType Encoding = indirect pcrel sdata4
	.uleb128 Lttbase6-Lttbaseref6
Lttbaseref6:
	.byte	1                               ; Call site Encoding = uleb128
	.uleb128 Lcst_end11-Lcst_begin11
Lcst_begin11:
	.uleb128 Ltmp432-Lfunc_begin11          ; >> Call Site 1 <<
	.uleb128 Ltmp433-Ltmp432                ;   Call between Ltmp432 and Ltmp433
	.uleb128 Ltmp434-Lfunc_begin11          ;     jumps to Ltmp434
	.byte	0                               ;   On action: cleanup
	.uleb128 Ltmp435-Lfunc_begin11          ; >> Call Site 2 <<
	.uleb128 Ltmp436-Ltmp435                ;   Call between Ltmp435 and Ltmp436
	.uleb128 Ltmp437-Lfunc_begin11          ;     jumps to Ltmp437
	.byte	0                               ;   On action: cleanup
	.uleb128 Ltmp438-Lfunc_begin11          ; >> Call Site 3 <<
	.uleb128 Ltmp439-Ltmp438                ;   Call between Ltmp438 and Ltmp439
	.uleb128 Ltmp440-Lfunc_begin11          ;     jumps to Ltmp440
	.byte	0                               ;   On action: cleanup
	.uleb128 Ltmp441-Lfunc_begin11          ; >> Call Site 4 <<
	.uleb128 Ltmp442-Ltmp441                ;   Call between Ltmp441 and Ltmp442
	.uleb128 Ltmp445-Lfunc_begin11          ;     jumps to Ltmp445
	.byte	0                               ;   On action: cleanup
	.uleb128 Ltmp446-Lfunc_begin11          ; >> Call Site 5 <<
	.uleb128 Ltmp447-Ltmp446                ;   Call between Ltmp446 and Ltmp447
	.uleb128 Ltmp448-Lfunc_begin11          ;     jumps to Ltmp448
	.byte	0                               ;   On action: cleanup
	.uleb128 Ltmp449-Lfunc_begin11          ; >> Call Site 6 <<
	.uleb128 Ltmp450-Ltmp449                ;   Call between Ltmp449 and Ltmp450
	.uleb128 Ltmp451-Lfunc_begin11          ;     jumps to Ltmp451
	.byte	0                               ;   On action: cleanup
	.uleb128 Ltmp452-Lfunc_begin11          ; >> Call Site 7 <<
	.uleb128 Ltmp453-Ltmp452                ;   Call between Ltmp452 and Ltmp453
	.uleb128 Ltmp454-Lfunc_begin11          ;     jumps to Ltmp454
	.byte	0                               ;   On action: cleanup
	.uleb128 Ltmp455-Lfunc_begin11          ; >> Call Site 8 <<
	.uleb128 Ltmp456-Ltmp455                ;   Call between Ltmp455 and Ltmp456
	.uleb128 Ltmp459-Lfunc_begin11          ;     jumps to Ltmp459
	.byte	0                               ;   On action: cleanup
	.uleb128 Ltmp460-Lfunc_begin11          ; >> Call Site 9 <<
	.uleb128 Ltmp461-Ltmp460                ;   Call between Ltmp460 and Ltmp461
	.uleb128 Ltmp462-Lfunc_begin11          ;     jumps to Ltmp462
	.byte	5                               ;   On action: 3
	.uleb128 Ltmp463-Lfunc_begin11          ; >> Call Site 10 <<
	.uleb128 Ltmp464-Ltmp463                ;   Call between Ltmp463 and Ltmp464
	.uleb128 Ltmp465-Lfunc_begin11          ;     jumps to Ltmp465
	.byte	5                               ;   On action: 3
	.uleb128 Ltmp443-Lfunc_begin11          ; >> Call Site 11 <<
	.uleb128 Ltmp444-Ltmp443                ;   Call between Ltmp443 and Ltmp444
	.uleb128 Ltmp445-Lfunc_begin11          ;     jumps to Ltmp445
	.byte	0                               ;   On action: cleanup
	.uleb128 Ltmp457-Lfunc_begin11          ; >> Call Site 12 <<
	.uleb128 Ltmp458-Ltmp457                ;   Call between Ltmp457 and Ltmp458
	.uleb128 Ltmp459-Lfunc_begin11          ;     jumps to Ltmp459
	.byte	0                               ;   On action: cleanup
	.uleb128 Ltmp458-Lfunc_begin11          ; >> Call Site 13 <<
	.uleb128 Lfunc_end11-Ltmp458            ;   Call between Ltmp458 and Lfunc_end11
	.byte	0                               ;     has no landing pad
	.byte	0                               ;   On action: cleanup
Lcst_end11:
	.byte	0                               ; >> Action Record 1 <<
                                        ;   Cleanup
	.byte	0                               ;   No further actions
	.byte	0                               ; >> Action Record 2 <<
                                        ;   Cleanup
	.byte	125                             ;   Continue to action 1
	.byte	1                               ; >> Action Record 3 <<
                                        ;   Catch TypeInfo 1
	.byte	125                             ;   Continue to action 2
	.p2align	2, 0x0
                                        ; >> Catch TypeInfos <<
	.long	0                               ; TypeInfo 1
Lttbase6:
	.p2align	2, 0x0
                                        ; -- End function
	.section	__TEXT,__literal16,16byte_literals
	.p2align	4, 0x0                          ; -- Begin function _ZN10playground32try_condition_variable_with_stopEv
lCPI16_0:
	.quad	1                               ; 0x1
	.quad	2                               ; 0x2
	.section	__TEXT,__text,regular,pure_instructions
	.globl	__ZN10playground32try_condition_variable_with_stopEv
	.p2align	2
__ZN10playground32try_condition_variable_with_stopEv: ; @_ZN10playground32try_condition_variable_with_stopEv
Lfunc_begin12:
	.cfi_startproc
	.cfi_personality 155, ___gxx_personality_v0
	.cfi_lsda 16, Lexception12
; %bb.0:
	sub	sp, sp, #320
	stp	x28, x27, [sp, #272]            ; 16-byte Folded Spill
	stp	x20, x19, [sp, #288]            ; 16-byte Folded Spill
	stp	x29, x30, [sp, #304]            ; 16-byte Folded Spill
	add	x29, sp, #304
	.cfi_def_cfa w29, 16
	.cfi_offset w30, -8
	.cfi_offset w29, -16
	.cfi_offset w19, -24
	.cfi_offset w20, -32
	.cfi_offset w27, -40
	.cfi_offset w28, -48
	add	x20, sp, #144
Lloh197:
	adrp	x8, ___stack_chk_guard@GOTPAGE
Lloh198:
	ldr	x8, [x8, ___stack_chk_guard@GOTPAGEOFF]
Lloh199:
	ldr	x8, [x8]
	stur	x8, [x29, #-40]
	mov	x19, #20480                     ; =0x5000
	movk	x19, #56534, lsl #16
	movk	x19, #1, lsl #32
	mov	x0, x19
	bl	__Znwm
	add	x8, x0, x19
	str	x0, [sp, #104]
	str	x8, [sp, #120]
Lloh200:
	adrp	x9, lCPI16_0@PAGE
Lloh201:
	ldr	q0, [x9, lCPI16_0@PAGEOFF]
	add	x9, x0, #32
	mov	w10, #51712                     ; =0xca00
	movk	w10, #15258, lsl #16
	mov	w11, #2                         ; =0x2
	dup.2d	v1, x11
	mov	w11, #4                         ; =0x4
	dup.2d	v2, x11
	mov	w11, #6                         ; =0x6
	dup.2d	v3, x11
	mov	w11, #8                         ; =0x8
	dup.2d	v4, x11
LBB16_1:                                ; =>This Inner Loop Header: Depth=1
	add.2d	v5, v0, v1
	add.2d	v6, v0, v2
	add.2d	v7, v0, v3
	stp	q0, q5, [x9, #-32]
	stp	q6, q7, [x9], #64
	add.2d	v0, v0, v4
	subs	x10, x10, #8
	b.ne	LBB16_1
; %bb.2:
	str	x8, [sp, #112]
	movi.2d	v0, #0000000000000000
	stp	q0, q0, [sp, #64]
	str	q0, [sp, #48]
	mov	w8, #43943                      ; =0xaba7
	movk	w8, #12970, lsl #16
	stp	q0, q0, [x20, #64]
	stur	q0, [x20, #96]
	stur	x8, [x29, #-104]
	stur	xzr, [x29, #-48]
	mov	w8, #45499                      ; =0xb1bb
	movk	w8, #15536, lsl #16
	str	x8, [sp, #144]
	stur	q0, [x20, #8]
	stur	q0, [x20, #24]
	stur	q0, [x20, #33]
Ltmp466:
	mov	w0, #8                          ; =0x8
	bl	__Znwm
Ltmp467:
; %bb.3:
Ltmp469:
	mov	x19, x0
	bl	__ZNSt3__115__thread_structC1Ev
Ltmp470:
; %bb.4:
	str	x19, [sp, #136]
Ltmp472:
	mov	w0, #40                         ; =0x28
	bl	__Znwm
Ltmp473:
; %bb.5:
	mov	x3, x0
	stp	x0, xzr, [sp, #128]
	sub	x8, x29, #104
	stp	x19, x8, [x0]
	add	x8, sp, #144
	add	x9, sp, #48
	stp	x8, x9, [x0, #16]
	add	x8, sp, #47
	str	x8, [x0, #32]
Ltmp475:
Lloh202:
	adrp	x2, __ZNSt3__114__thread_proxyB8ne200100INS_5tupleIJNS_10unique_ptrINS_15__thread_structENS_14default_deleteIS3_EEEEZN10playground32try_condition_variable_with_stopEvE3$_1EEEEEPvSA_@PAGE
Lloh203:
	add	x2, x2, __ZNSt3__114__thread_proxyB8ne200100INS_5tupleIJNS_10unique_ptrINS_15__thread_structENS_14default_deleteIS3_EEEEZN10playground32try_condition_variable_with_stopEvE3$_1EEEEEPvSA_@PAGEOFF
	add	x0, sp, #24
	mov	x1, #0                          ; =0x0
	bl	_pthread_create
Ltmp476:
; %bb.6:
	cbnz	w0, LBB16_33
; %bb.7:
	ldr	x8, [sp, #24]
	stp	xzr, x8, [sp, #24]
	add	x0, sp, #24
	bl	__ZNSt3__16threadD1Ev
Ltmp480:
	mov	w0, #8                          ; =0x8
	bl	__Znwm
Ltmp481:
; %bb.8:
Ltmp483:
	mov	x19, x0
	bl	__ZNSt3__115__thread_structC1Ev
Ltmp484:
; %bb.9:
	str	x19, [sp, #136]
Ltmp486:
	mov	w0, #40                         ; =0x28
	bl	__Znwm
Ltmp487:
; %bb.10:
	mov	x3, x0
	stp	x0, xzr, [sp, #128]
	add	x8, sp, #104
	stp	x19, x8, [x0]
	sub	x8, x29, #104
	add	x9, sp, #48
	stp	x8, x9, [x0, #16]
	add	x8, sp, #144
	str	x8, [x0, #32]
Ltmp489:
Lloh204:
	adrp	x2, __ZNSt3__114__thread_proxyB8ne200100INS_5tupleIJNS_10unique_ptrINS_15__thread_structENS_14default_deleteIS3_EEEEZN10playground32try_condition_variable_with_stopEvE3$_2EEEEEPvSA_@PAGE
Lloh205:
	add	x2, x2, __ZNSt3__114__thread_proxyB8ne200100INS_5tupleIJNS_10unique_ptrINS_15__thread_structENS_14default_deleteIS3_EEEEZN10playground32try_condition_variable_with_stopEvE3$_2EEEEEPvSA_@PAGEOFF
	add	x0, sp, #8
	mov	x1, #0                          ; =0x0
	bl	_pthread_create
Ltmp490:
; %bb.11:
	cbnz	w0, LBB16_34
; %bb.12:
	ldr	x19, [sp, #8]
	stp	xzr, x19, [sp, #8]
	add	x0, sp, #8
	bl	__ZNSt3__16threadD1Ev
	cbz	x19, LBB16_14
; %bb.13:
Ltmp494:
	add	x0, sp, #16
	bl	__ZNSt3__16thread4joinEv
Ltmp495:
LBB16_14:
	add	x0, sp, #16
	bl	__ZNSt3__16threadD1Ev
	ldr	x8, [sp, #32]
	cbz	x8, LBB16_16
; %bb.15:
Ltmp497:
	add	x0, sp, #32
	bl	__ZNSt3__16thread4joinEv
Ltmp498:
LBB16_16:
	add	x0, sp, #32
	bl	__ZNSt3__16threadD1Ev
	add	x8, sp, #144
	add	x8, x8, #48
	mov	w9, #1                          ; =0x1
	stlrb	w9, [x8]
	add	x0, sp, #144
	bl	__ZNSt3__118condition_variable10notify_allEv
	add	x0, sp, #144
	bl	__ZNSt3__118condition_variableD1Ev
	sub	x0, x29, #104
	bl	__ZNSt3__15mutexD1Ev
	ldp	x19, x20, [sp, #56]
	str	xzr, [sp, #88]
	sub	x8, x20, x19
	asr	x8, x8, #3
	cmp	x8, #3
	b.lo	LBB16_18
LBB16_17:                               ; =>This Inner Loop Header: Depth=1
	ldr	x0, [x19]
	bl	__ZdlPv
	ldp	x8, x20, [sp, #56]
	add	x19, x8, #8
	str	x19, [sp, #56]
	sub	x8, x20, x19
	asr	x8, x8, #3
	cmp	x8, #2
	b.hi	LBB16_17
LBB16_18:
	cmp	x8, #1
	b.eq	LBB16_21
; %bb.19:
	cmp	x8, #2
	b.ne	LBB16_23
; %bb.20:
	mov	w8, #512                        ; =0x200
	b	LBB16_22
LBB16_21:
	mov	w8, #256                        ; =0x100
LBB16_22:
	str	x8, [sp, #80]
LBB16_23:
	cmp	x19, x20
	b.eq	LBB16_27
LBB16_24:                               ; =>This Inner Loop Header: Depth=1
	ldr	x0, [x19], #8
	bl	__ZdlPv
	cmp	x19, x20
	b.ne	LBB16_24
; %bb.25:
	ldp	x9, x8, [sp, #56]
	cmp	x8, x9
	b.eq	LBB16_27
; %bb.26:
	sub	x9, x9, x8
	add	x9, x9, #7
	and	x9, x9, #0xfffffffffffffff8
	add	x8, x8, x9
	str	x8, [sp, #64]
LBB16_27:
	ldr	x0, [sp, #48]
	cbz	x0, LBB16_29
; %bb.28:
	bl	__ZdlPv
LBB16_29:
	ldr	x0, [sp, #104]
	cbz	x0, LBB16_31
; %bb.30:
	str	x0, [sp, #112]
	bl	__ZdlPv
LBB16_31:
	ldur	x8, [x29, #-40]
Lloh206:
	adrp	x9, ___stack_chk_guard@GOTPAGE
Lloh207:
	ldr	x9, [x9, ___stack_chk_guard@GOTPAGEOFF]
Lloh208:
	ldr	x9, [x9]
	cmp	x9, x8
	b.ne	LBB16_36
; %bb.32:
	ldp	x29, x30, [sp, #304]            ; 16-byte Folded Reload
	ldp	x20, x19, [sp, #288]            ; 16-byte Folded Reload
	ldp	x28, x27, [sp, #272]            ; 16-byte Folded Reload
	add	sp, sp, #320
	ret
LBB16_33:
Ltmp477:
Lloh209:
	adrp	x1, l_.str.14@PAGE
Lloh210:
	add	x1, x1, l_.str.14@PAGEOFF
	bl	__ZNSt3__120__throw_system_errorEiPKc
Ltmp478:
	b	LBB16_35
LBB16_34:
Ltmp491:
Lloh211:
	adrp	x1, l_.str.14@PAGE
Lloh212:
	add	x1, x1, l_.str.14@PAGEOFF
	bl	__ZNSt3__120__throw_system_errorEiPKc
Ltmp492:
LBB16_35:
	brk	#0x1
LBB16_36:
	bl	___stack_chk_fail
LBB16_37:
Ltmp499:
	b	LBB16_39
LBB16_38:
Ltmp496:
LBB16_39:
	mov	x19, x0
	cbz	w1, LBB16_54
; %bb.40:
	mov	x0, x19
	bl	___clang_call_terminate
LBB16_41:
Ltmp488:
	mov	x19, x0
	b	LBB16_48
LBB16_42:
Ltmp485:
	mov	x8, x19
	mov	x19, x0
	mov	x0, x8
	bl	__ZdlPv
	b	LBB16_49
LBB16_43:
Ltmp482:
	mov	x19, x0
	b	LBB16_49
LBB16_44:
Ltmp474:
	mov	x19, x0
	b	LBB16_51
LBB16_45:
Ltmp471:
	mov	x8, x19
	mov	x19, x0
	mov	x0, x8
	bl	__ZdlPv
	b	LBB16_52
LBB16_46:
Ltmp468:
	mov	x19, x0
	b	LBB16_52
LBB16_47:
Ltmp493:
	mov	x19, x0
	add	x0, sp, #128
	bl	__ZNSt3__110unique_ptrINS_5tupleIJNS0_INS_15__thread_structENS_14default_deleteIS2_EEEEZN10playground32try_condition_variable_with_stopEvE3$_2EEENS3_IS8_EEED1B8ne200100Ev
LBB16_48:
	add	x0, sp, #136
	bl	__ZNSt3__110unique_ptrINS_15__thread_structENS_14default_deleteIS1_EEED1B8ne200100Ev
LBB16_49:
	add	x0, sp, #32
	bl	__ZN10playground14guarded_threadD1Ev
	b	LBB16_52
LBB16_50:
Ltmp479:
	mov	x19, x0
	add	x0, sp, #128
	bl	__ZNSt3__110unique_ptrINS_5tupleIJNS0_INS_15__thread_structENS_14default_deleteIS2_EEEEZN10playground32try_condition_variable_with_stopEvE3$_1EEENS3_IS8_EEED1B8ne200100Ev
LBB16_51:
	add	x0, sp, #136
	bl	__ZNSt3__110unique_ptrINS_15__thread_structENS_14default_deleteIS1_EEED1B8ne200100Ev
LBB16_52:
	add	x8, sp, #144
	add	x8, x8, #48
	mov	w9, #1                          ; =0x1
	stlrb	w9, [x8]
	add	x0, sp, #144
	bl	__ZNSt3__118condition_variable10notify_allEv
	add	x0, sp, #144
	bl	__ZNSt3__118condition_variableD1Ev
	sub	x0, x29, #104
	bl	__ZNSt3__15mutexD1Ev
	add	x0, sp, #48
	bl	__ZNSt3__15dequeIxNS_9allocatorIxEEED2B8ne200100Ev
	ldr	x0, [sp, #104]
	cbz	x0, LBB16_54
; %bb.53:
	str	x0, [sp, #112]
	bl	__ZdlPv
LBB16_54:
	mov	x0, x19
	bl	__Unwind_Resume
	.loh AdrpLdr	Lloh200, Lloh201
	.loh AdrpLdrGotLdr	Lloh197, Lloh198, Lloh199
	.loh AdrpAdd	Lloh202, Lloh203
	.loh AdrpAdd	Lloh204, Lloh205
	.loh AdrpLdrGotLdr	Lloh206, Lloh207, Lloh208
	.loh AdrpAdd	Lloh209, Lloh210
	.loh AdrpAdd	Lloh211, Lloh212
Lfunc_end12:
	.cfi_endproc
	.section	__TEXT,__gcc_except_tab
	.p2align	2, 0x0
GCC_except_table16:
Lexception12:
	.byte	255                             ; @LPStart Encoding = omit
	.byte	155                             ; @TType Encoding = indirect pcrel sdata4
	.uleb128 Lttbase7-Lttbaseref7
Lttbaseref7:
	.byte	1                               ; Call site Encoding = uleb128
	.uleb128 Lcst_end12-Lcst_begin12
Lcst_begin12:
	.uleb128 Lfunc_begin12-Lfunc_begin12    ; >> Call Site 1 <<
	.uleb128 Ltmp466-Lfunc_begin12          ;   Call between Lfunc_begin12 and Ltmp466
	.byte	0                               ;     has no landing pad
	.byte	0                               ;   On action: cleanup
	.uleb128 Ltmp466-Lfunc_begin12          ; >> Call Site 2 <<
	.uleb128 Ltmp467-Ltmp466                ;   Call between Ltmp466 and Ltmp467
	.uleb128 Ltmp468-Lfunc_begin12          ;     jumps to Ltmp468
	.byte	0                               ;   On action: cleanup
	.uleb128 Ltmp469-Lfunc_begin12          ; >> Call Site 3 <<
	.uleb128 Ltmp470-Ltmp469                ;   Call between Ltmp469 and Ltmp470
	.uleb128 Ltmp471-Lfunc_begin12          ;     jumps to Ltmp471
	.byte	0                               ;   On action: cleanup
	.uleb128 Ltmp472-Lfunc_begin12          ; >> Call Site 4 <<
	.uleb128 Ltmp473-Ltmp472                ;   Call between Ltmp472 and Ltmp473
	.uleb128 Ltmp474-Lfunc_begin12          ;     jumps to Ltmp474
	.byte	0                               ;   On action: cleanup
	.uleb128 Ltmp475-Lfunc_begin12          ; >> Call Site 5 <<
	.uleb128 Ltmp476-Ltmp475                ;   Call between Ltmp475 and Ltmp476
	.uleb128 Ltmp479-Lfunc_begin12          ;     jumps to Ltmp479
	.byte	0                               ;   On action: cleanup
	.uleb128 Ltmp480-Lfunc_begin12          ; >> Call Site 6 <<
	.uleb128 Ltmp481-Ltmp480                ;   Call between Ltmp480 and Ltmp481
	.uleb128 Ltmp482-Lfunc_begin12          ;     jumps to Ltmp482
	.byte	0                               ;   On action: cleanup
	.uleb128 Ltmp483-Lfunc_begin12          ; >> Call Site 7 <<
	.uleb128 Ltmp484-Ltmp483                ;   Call between Ltmp483 and Ltmp484
	.uleb128 Ltmp485-Lfunc_begin12          ;     jumps to Ltmp485
	.byte	0                               ;   On action: cleanup
	.uleb128 Ltmp486-Lfunc_begin12          ; >> Call Site 8 <<
	.uleb128 Ltmp487-Ltmp486                ;   Call between Ltmp486 and Ltmp487
	.uleb128 Ltmp488-Lfunc_begin12          ;     jumps to Ltmp488
	.byte	0                               ;   On action: cleanup
	.uleb128 Ltmp489-Lfunc_begin12          ; >> Call Site 9 <<
	.uleb128 Ltmp490-Ltmp489                ;   Call between Ltmp489 and Ltmp490
	.uleb128 Ltmp493-Lfunc_begin12          ;     jumps to Ltmp493
	.byte	0                               ;   On action: cleanup
	.uleb128 Ltmp494-Lfunc_begin12          ; >> Call Site 10 <<
	.uleb128 Ltmp495-Ltmp494                ;   Call between Ltmp494 and Ltmp495
	.uleb128 Ltmp496-Lfunc_begin12          ;     jumps to Ltmp496
	.byte	5                               ;   On action: 3
	.uleb128 Ltmp497-Lfunc_begin12          ; >> Call Site 11 <<
	.uleb128 Ltmp498-Ltmp497                ;   Call between Ltmp497 and Ltmp498
	.uleb128 Ltmp499-Lfunc_begin12          ;     jumps to Ltmp499
	.byte	5                               ;   On action: 3
	.uleb128 Ltmp477-Lfunc_begin12          ; >> Call Site 12 <<
	.uleb128 Ltmp478-Ltmp477                ;   Call between Ltmp477 and Ltmp478
	.uleb128 Ltmp479-Lfunc_begin12          ;     jumps to Ltmp479
	.byte	0                               ;   On action: cleanup
	.uleb128 Ltmp491-Lfunc_begin12          ; >> Call Site 13 <<
	.uleb128 Ltmp492-Ltmp491                ;   Call between Ltmp491 and Ltmp492
	.uleb128 Ltmp493-Lfunc_begin12          ;     jumps to Ltmp493
	.byte	0                               ;   On action: cleanup
	.uleb128 Ltmp492-Lfunc_begin12          ; >> Call Site 14 <<
	.uleb128 Lfunc_end12-Ltmp492            ;   Call between Ltmp492 and Lfunc_end12
	.byte	0                               ;     has no landing pad
	.byte	0                               ;   On action: cleanup
Lcst_end12:
	.byte	0                               ; >> Action Record 1 <<
                                        ;   Cleanup
	.byte	0                               ;   No further actions
	.byte	0                               ; >> Action Record 2 <<
                                        ;   Cleanup
	.byte	125                             ;   Continue to action 1
	.byte	1                               ; >> Action Record 3 <<
                                        ;   Catch TypeInfo 1
	.byte	125                             ;   Continue to action 2
	.p2align	2, 0x0
                                        ; >> Catch TypeInfos <<
	.long	0                               ; TypeInfo 1
Lttbase7:
	.p2align	2, 0x0
                                        ; -- End function
	.section	__TEXT,__literal16,16byte_literals
	.p2align	4, 0x0                          ; -- Begin function _ZN10playground11try_messageEv
lCPI17_0:
	.quad	0x4005bf0995aaf790              ; double 2.71828
	.quad	0x400921f9f01b866e              ; double 3.1415899999999999
	.section	__TEXT,__text,regular,pure_instructions
	.globl	__ZN10playground11try_messageEv
	.p2align	2
__ZN10playground11try_messageEv:        ; @_ZN10playground11try_messageEv
Lfunc_begin13:
	.cfi_startproc
	.cfi_personality 155, ___gxx_personality_v0
	.cfi_lsda 16, Lexception13
; %bb.0:
	sub	sp, sp, #272
	stp	x28, x27, [sp, #176]            ; 16-byte Folded Spill
	stp	x26, x25, [sp, #192]            ; 16-byte Folded Spill
	stp	x24, x23, [sp, #208]            ; 16-byte Folded Spill
	stp	x22, x21, [sp, #224]            ; 16-byte Folded Spill
	stp	x20, x19, [sp, #240]            ; 16-byte Folded Spill
	stp	x29, x30, [sp, #256]            ; 16-byte Folded Spill
	add	x29, sp, #256
	.cfi_def_cfa w29, 16
	.cfi_offset w30, -8
	.cfi_offset w29, -16
	.cfi_offset w19, -24
	.cfi_offset w20, -32
	.cfi_offset w21, -40
	.cfi_offset w22, -48
	.cfi_offset w23, -56
	.cfi_offset w24, -64
	.cfi_offset w25, -72
	.cfi_offset w26, -80
	.cfi_offset w27, -88
	.cfi_offset w28, -96
Lloh213:
	adrp	x8, ___stack_chk_guard@GOTPAGE
Lloh214:
	ldr	x8, [x8, ___stack_chk_guard@GOTPAGEOFF]
Lloh215:
	ldr	x8, [x8]
	stur	x8, [x29, #-96]
	stp	xzr, xzr, [sp, #112]
	str	xzr, [sp, #128]
	add	x8, sp, #112
	str	x8, [sp, #56]
Ltmp500:
	mov	w0, #392                        ; =0x188
	bl	__Znwm
Ltmp501:
; %bb.1:
	stp	x0, x0, [sp, #24]
	add	x8, x0, #392
	stp	x0, x8, [sp, #40]
Ltmp503:
	add	x0, sp, #112
	add	x1, sp, #24
	bl	__ZNSt3__16vectorIN3msg7messageINS_7variantIJNS_9monostateEdiNS_12basic_stringIcNS_11char_traitsIcEENS_9allocatorIcEEEEcN10playground12_GLOBAL__N_17arr_msgENS_4pairIddEEEEEEENS8_ISH_EEE26__swap_out_circular_bufferERNS_14__split_bufferISH_RSI_EE
Ltmp504:
; %bb.2:
	ldp	x19, x20, [sp, #32]
Lloh216:
	adrp	x22, l___const._ZNSt3__116__variant_detail12__visitation6__base11__visit_altB8ne200100IZNS0_6__dtorINS0_8__traitsIJNS_9monostateEdiNS_12basic_stringIcNS_11char_traitsIcEENS_9allocatorIcEEEEcN10playground12_GLOBAL__N_17arr_msgENS_4pairIddEEEEELNS0_6_TraitE1EE9__destroyB8ne200100EvEUlRT_E_JRSK_EEEDcOSL_DpOT0_.__fmatrix@PAGE
Lloh217:
	add	x22, x22, l___const._ZNSt3__116__variant_detail12__visitation6__base11__visit_altB8ne200100IZNS0_6__dtorINS0_8__traitsIJNS_9monostateEdiNS_12basic_stringIcNS_11char_traitsIcEENS_9allocatorIcEEEEcN10playground12_GLOBAL__N_17arr_msgENS_4pairIddEEEEELNS0_6_TraitE1EE9__destroyB8ne200100EvEUlRT_E_JRSK_EEEDcOSL_DpOT0_.__fmatrix@PAGEOFF
	cmp	x20, x19
	b.eq	LBB17_8
; %bb.3:
	mov	w21, #-1                        ; =0xffffffff
	b	LBB17_5
LBB17_4:                                ;   in Loop: Header=BB17_5 Depth=1
	stur	w21, [x20, #-32]
	mov	x20, x1
	cmp	x1, x19
	b.eq	LBB17_8
LBB17_5:                                ; =>This Inner Loop Header: Depth=1
	sub	x1, x20, #56
	str	x1, [sp, #40]
	ldur	w8, [x20, #-32]
	cmn	w8, #1
	b.eq	LBB17_4
; %bb.6:                                ;   in Loop: Header=BB17_5 Depth=1
	ldr	x8, [x22, x8, lsl #3]
Ltmp506:
	add	x0, sp, #96
	blr	x8
Ltmp507:
; %bb.7:                                ;   in Loop: Header=BB17_5 Depth=1
	ldr	x1, [sp, #40]
	b	LBB17_4
LBB17_8:
	ldr	x0, [sp, #24]
	cbz	x0, LBB17_10
; %bb.9:
	bl	__ZdlPv
LBB17_10:
	mov	x23, #9362                      ; =0x2492
	movk	x23, #37449, lsl #16
	movk	x23, #18724, lsl #32
	movk	x23, #1170, lsl #48
	ldp	x26, x8, [sp, #120]
	mov	x20, #28087                     ; =0x6db7
	movk	x20, #46811, lsl #16
	movk	x20, #56173, lsl #32
	movk	x20, #28086, lsl #48
	cmp	x26, x8
	b.hs	LBB17_14
; %bb.11:
	mov	x9, #34079                      ; =0x851f
	movk	x9, #20971, lsl #16
	movk	x9, #7864, lsl #32
	movk	x9, #16393, lsl #48
	str	x9, [x26]
	mov	w9, #1                          ; =0x1
	str	w9, [x26, #24]
	str	x9, [x26, #32]
	strb	wzr, [x26, #40]
	add	x27, x26, #56
	strb	wzr, [x26, #48]
	str	x27, [sp, #120]
	cmp	x27, x8
	b.hs	LBB17_34
LBB17_12:
	mov	w9, #12345                      ; =0x3039
	str	w9, [x27]
	mov	w9, #2                          ; =0x2
	str	w9, [x27, #24]
	str	x9, [x27, #32]
	strb	wzr, [x27, #40]
	add	x26, x27, #56
	strb	wzr, [x27, #48]
	str	x26, [sp, #120]
	cmp	x26, x8
	b.hs	LBB17_54
LBB17_13:
	mov	w8, #13                         ; =0xd
Lloh218:
	adrp	x9, l_.str.10@PAGE
Lloh219:
	add	x9, x9, l_.str.10@PAGEOFF
	strb	w8, [x26, #23]
	ldr	x8, [x9]
	str	x8, [x26]
	ldur	x8, [x9, #5]
	stur	x8, [x26, #5]
	strb	wzr, [x26, #13]
	mov	w8, #3                          ; =0x3
	str	w8, [x26, #24]
	str	x8, [x26, #32]
	strb	wzr, [x26, #40]
	strb	wzr, [x26, #48]
	add	x26, x26, #56
	b	LBB17_72
LBB17_14:
	ldr	x19, [sp, #112]
	sub	x25, x26, x19
	asr	x24, x25, #3
	mul	x21, x24, x20
	add	x9, x21, #1
	cmp	x9, x23
	b.hi	LBB17_195
; %bb.15:
	sub	x8, x8, x19
	asr	x8, x8, #3
	mul	x8, x8, x20
	lsl	x10, x8, #1
	cmp	x10, x9
	csel	x9, x10, x9, hi
	mov	x10, #37449                     ; =0x9249
	movk	x10, #18724, lsl #16
	movk	x10, #9362, lsl #32
	movk	x10, #585, lsl #48
	cmp	x8, x10
	csel	x27, x9, x23, lo
	cbz	x27, LBB17_19
; %bb.16:
	cmp	x27, x23
	b.hi	LBB17_202
; %bb.17:
	lsl	x8, x27, #6
	sub	x0, x8, x27, lsl #3
Ltmp509:
	bl	__Znwm
Ltmp510:
; %bb.18:
	mov	x28, x0
	b	LBB17_20
LBB17_19:
	mov	x28, #0                         ; =0x0
LBB17_20:
	mov	w8, #56                         ; =0x38
	madd	x23, x21, x8, x28
	mov	x8, #34079                      ; =0x851f
	movk	x8, #20971, lsl #16
	movk	x8, #7864, lsl #32
	movk	x8, #16393, lsl #48
	str	x8, [x23]
	mov	w8, #1                          ; =0x1
	str	w8, [x23, #24]
	str	x8, [x23, #32]
	strb	wzr, [x23, #40]
	strb	wzr, [x23, #48]
	cmp	x19, x26
	b.eq	LBB17_31
; %bb.21:
	stp	x27, x25, [sp, #8]              ; 16-byte Folded Spill
	mov	x25, #0                         ; =0x0
	mov	x8, #37449                      ; =0x9249
	movk	x8, #18724, lsl #16
	movk	x8, #9362, lsl #32
	movk	x8, #37449, lsl #48
	mul	x8, x24, x8
	mov	w9, #56                         ; =0x38
	mul	x8, x8, x9
	madd	x8, x21, x9, x8
	str	x28, [sp]                       ; 8-byte Folded Spill
	add	x24, x28, x8
	mov	w28, #-1                        ; =0xffffffff
Lloh220:
	adrp	x20, l___const._ZNSt3__116__variant_detail12__visitation6__base14__visit_alt_atB8ne200100IZNS0_6__ctorINS0_8__traitsIJNS_9monostateEdiNS_12basic_stringIcNS_11char_traitsIcEENS_9allocatorIcEEEEcN10playground12_GLOBAL__N_17arr_msgENS_4pairIddEEEEEE19__generic_constructB8ne200100INS0_18__move_constructorISI_LNS0_6_TraitE1EEEEEvRSJ_OT_EUlSQ_E_JSN_EEEDcmSQ_DpOT0_.__fdiagonal@PAGE
Lloh221:
	add	x20, x20, l___const._ZNSt3__116__variant_detail12__visitation6__base14__visit_alt_atB8ne200100IZNS0_6__ctorINS0_8__traitsIJNS_9monostateEdiNS_12basic_stringIcNS_11char_traitsIcEENS_9allocatorIcEEEEcN10playground12_GLOBAL__N_17arr_msgENS_4pairIddEEEEEE19__generic_constructB8ne200100INS0_18__move_constructorISI_LNS0_6_TraitE1EEEEEvRSJ_OT_EUlSQ_E_JSN_EEEDcmSQ_DpOT0_.__fdiagonal@PAGEOFF
	b	LBB17_24
LBB17_22:                               ;   in Loop: Header=BB17_24 Depth=1
	str	w22, [x27, #24]
LBB17_23:                               ;   in Loop: Header=BB17_24 Depth=1
	ldr	q0, [x21, #32]
	ldrb	w8, [x21, #48]
	strb	w8, [x27, #48]
	str	q0, [x27, #32]
	add	x25, x25, #56
	add	x8, x19, x25
	cmp	x8, x26
	b.eq	LBB17_26
LBB17_24:                               ; =>This Inner Loop Header: Depth=1
	add	x27, x24, x25
	add	x21, x19, x25
	strb	wzr, [x27]
	str	w28, [x27, #24]
	ldr	w22, [x21, #24]
	cmn	w22, #1
	b.eq	LBB17_23
; %bb.25:                               ;   in Loop: Header=BB17_24 Depth=1
	str	x27, [sp, #24]
	ldr	x8, [x20, w22, uxtw #3]
Ltmp513:
	add	x0, sp, #24
	mov	x1, x21
	blr	x8
Ltmp514:
	b	LBB17_22
LBB17_26:
	mov	w20, #-1                        ; =0xffffffff
Lloh222:
	adrp	x22, l___const._ZNSt3__116__variant_detail12__visitation6__base11__visit_altB8ne200100IZNS0_6__dtorINS0_8__traitsIJNS_9monostateEdiNS_12basic_stringIcNS_11char_traitsIcEENS_9allocatorIcEEEEcN10playground12_GLOBAL__N_17arr_msgENS_4pairIddEEEEELNS0_6_TraitE1EE9__destroyB8ne200100EvEUlRT_E_JRSK_EEEDcOSL_DpOT0_.__fmatrix@PAGE
Lloh223:
	add	x22, x22, l___const._ZNSt3__116__variant_detail12__visitation6__base11__visit_altB8ne200100IZNS0_6__dtorINS0_8__traitsIJNS_9monostateEdiNS_12basic_stringIcNS_11char_traitsIcEENS_9allocatorIcEEEEcN10playground12_GLOBAL__N_17arr_msgENS_4pairIddEEEEELNS0_6_TraitE1EE9__destroyB8ne200100EvEUlRT_E_JRSK_EEEDcOSL_DpOT0_.__fmatrix@PAGEOFF
	ldp	x27, x25, [sp, #8]              ; 16-byte Folded Reload
	ldr	x28, [sp]                       ; 8-byte Folded Reload
	b	LBB17_28
LBB17_27:                               ;   in Loop: Header=BB17_28 Depth=1
	str	w20, [x19, #24]
	add	x19, x19, #56
	cmp	x19, x26
	b.eq	LBB17_30
LBB17_28:                               ; =>This Inner Loop Header: Depth=1
	ldr	w8, [x19, #24]
	cmn	w8, #1
	b.eq	LBB17_27
; %bb.29:                               ;   in Loop: Header=BB17_28 Depth=1
	ldr	x8, [x22, x8, lsl #3]
Ltmp516:
	add	x0, sp, #24
	mov	x1, x19
	blr	x8
Ltmp517:
	b	LBB17_27
LBB17_30:
	ldr	x19, [sp, #112]
	mov	x20, #28087                     ; =0x6db7
	movk	x20, #46811, lsl #16
	movk	x20, #56173, lsl #32
	movk	x20, #28086, lsl #48
LBB17_31:
	mov	w8, #56                         ; =0x38
	madd	x8, x27, x8, x28
	add	x27, x23, #56
	sub	x9, x23, x25
	stp	x9, x27, [sp, #112]
	str	x8, [sp, #128]
	cbz	x19, LBB17_33
; %bb.32:
	mov	x0, x19
	bl	__ZdlPv
	ldr	x8, [sp, #128]
LBB17_33:
	mov	x23, #9362                      ; =0x2492
	movk	x23, #37449, lsl #16
	movk	x23, #18724, lsl #32
	movk	x23, #1170, lsl #48
	str	x27, [sp, #120]
	cmp	x27, x8
	b.lo	LBB17_12
LBB17_34:
	ldr	x19, [sp, #112]
	sub	x25, x27, x19
	asr	x24, x25, #3
	mul	x21, x24, x20
	add	x9, x21, #1
	cmp	x9, x23
	b.hi	LBB17_196
; %bb.35:
	sub	x8, x8, x19
	asr	x8, x8, #3
	mul	x8, x8, x20
	lsl	x10, x8, #1
	cmp	x10, x9
	csel	x9, x10, x9, hi
	mov	x10, #37449                     ; =0x9249
	movk	x10, #18724, lsl #16
	movk	x10, #9362, lsl #32
	movk	x10, #585, lsl #48
	cmp	x8, x10
	csel	x26, x9, x23, lo
	cbz	x26, LBB17_39
; %bb.36:
	cmp	x26, x23
	b.hi	LBB17_203
; %bb.37:
	lsl	x8, x26, #6
	sub	x0, x8, x26, lsl #3
Ltmp522:
	bl	__Znwm
Ltmp523:
; %bb.38:
	mov	x28, x0
	b	LBB17_40
LBB17_39:
	mov	x28, #0                         ; =0x0
LBB17_40:
	mov	w8, #56                         ; =0x38
	madd	x23, x21, x8, x28
	mov	w8, #12345                      ; =0x3039
	str	w8, [x23]
	mov	w8, #2                          ; =0x2
	str	w8, [x23, #24]
	str	x8, [x23, #32]
	strb	wzr, [x23, #40]
	strb	wzr, [x23, #48]
	cmp	x19, x27
	b.eq	LBB17_51
; %bb.41:
	stp	x26, x25, [sp, #8]              ; 16-byte Folded Spill
	mov	x25, #0                         ; =0x0
	mov	x8, #37449                      ; =0x9249
	movk	x8, #18724, lsl #16
	movk	x8, #9362, lsl #32
	movk	x8, #37449, lsl #48
	mul	x8, x24, x8
	mov	w9, #56                         ; =0x38
	mul	x8, x8, x9
	madd	x8, x21, x9, x8
	str	x28, [sp]                       ; 8-byte Folded Spill
	add	x24, x28, x8
	mov	w28, #-1                        ; =0xffffffff
Lloh224:
	adrp	x20, l___const._ZNSt3__116__variant_detail12__visitation6__base14__visit_alt_atB8ne200100IZNS0_6__ctorINS0_8__traitsIJNS_9monostateEdiNS_12basic_stringIcNS_11char_traitsIcEENS_9allocatorIcEEEEcN10playground12_GLOBAL__N_17arr_msgENS_4pairIddEEEEEE19__generic_constructB8ne200100INS0_18__move_constructorISI_LNS0_6_TraitE1EEEEEvRSJ_OT_EUlSQ_E_JSN_EEEDcmSQ_DpOT0_.__fdiagonal@PAGE
Lloh225:
	add	x20, x20, l___const._ZNSt3__116__variant_detail12__visitation6__base14__visit_alt_atB8ne200100IZNS0_6__ctorINS0_8__traitsIJNS_9monostateEdiNS_12basic_stringIcNS_11char_traitsIcEENS_9allocatorIcEEEEcN10playground12_GLOBAL__N_17arr_msgENS_4pairIddEEEEEE19__generic_constructB8ne200100INS0_18__move_constructorISI_LNS0_6_TraitE1EEEEEvRSJ_OT_EUlSQ_E_JSN_EEEDcmSQ_DpOT0_.__fdiagonal@PAGEOFF
	b	LBB17_44
LBB17_42:                               ;   in Loop: Header=BB17_44 Depth=1
	str	w22, [x26, #24]
LBB17_43:                               ;   in Loop: Header=BB17_44 Depth=1
	ldr	q0, [x21, #32]
	ldrb	w8, [x21, #48]
	strb	w8, [x26, #48]
	str	q0, [x26, #32]
	add	x25, x25, #56
	add	x8, x19, x25
	cmp	x8, x27
	b.eq	LBB17_46
LBB17_44:                               ; =>This Inner Loop Header: Depth=1
	add	x26, x24, x25
	add	x21, x19, x25
	strb	wzr, [x26]
	str	w28, [x26, #24]
	ldr	w22, [x21, #24]
	cmn	w22, #1
	b.eq	LBB17_43
; %bb.45:                               ;   in Loop: Header=BB17_44 Depth=1
	str	x26, [sp, #24]
	ldr	x8, [x20, w22, uxtw #3]
Ltmp526:
	add	x0, sp, #24
	mov	x1, x21
	blr	x8
Ltmp527:
	b	LBB17_42
LBB17_46:
	mov	w20, #-1                        ; =0xffffffff
Lloh226:
	adrp	x22, l___const._ZNSt3__116__variant_detail12__visitation6__base11__visit_altB8ne200100IZNS0_6__dtorINS0_8__traitsIJNS_9monostateEdiNS_12basic_stringIcNS_11char_traitsIcEENS_9allocatorIcEEEEcN10playground12_GLOBAL__N_17arr_msgENS_4pairIddEEEEELNS0_6_TraitE1EE9__destroyB8ne200100EvEUlRT_E_JRSK_EEEDcOSL_DpOT0_.__fmatrix@PAGE
Lloh227:
	add	x22, x22, l___const._ZNSt3__116__variant_detail12__visitation6__base11__visit_altB8ne200100IZNS0_6__dtorINS0_8__traitsIJNS_9monostateEdiNS_12basic_stringIcNS_11char_traitsIcEENS_9allocatorIcEEEEcN10playground12_GLOBAL__N_17arr_msgENS_4pairIddEEEEELNS0_6_TraitE1EE9__destroyB8ne200100EvEUlRT_E_JRSK_EEEDcOSL_DpOT0_.__fmatrix@PAGEOFF
	ldp	x26, x25, [sp, #8]              ; 16-byte Folded Reload
	ldr	x28, [sp]                       ; 8-byte Folded Reload
	b	LBB17_48
LBB17_47:                               ;   in Loop: Header=BB17_48 Depth=1
	str	w20, [x19, #24]
	add	x19, x19, #56
	cmp	x19, x27
	b.eq	LBB17_50
LBB17_48:                               ; =>This Inner Loop Header: Depth=1
	ldr	w8, [x19, #24]
	cmn	w8, #1
	b.eq	LBB17_47
; %bb.49:                               ;   in Loop: Header=BB17_48 Depth=1
	ldr	x8, [x22, x8, lsl #3]
Ltmp529:
	add	x0, sp, #24
	mov	x1, x19
	blr	x8
Ltmp530:
	b	LBB17_47
LBB17_50:
	ldr	x19, [sp, #112]
	mov	x20, #28087                     ; =0x6db7
	movk	x20, #46811, lsl #16
	movk	x20, #56173, lsl #32
	movk	x20, #28086, lsl #48
LBB17_51:
	mov	w8, #56                         ; =0x38
	madd	x8, x26, x8, x28
	add	x26, x23, #56
	sub	x9, x23, x25
	stp	x9, x26, [sp, #112]
	str	x8, [sp, #128]
	cbz	x19, LBB17_53
; %bb.52:
	mov	x0, x19
	bl	__ZdlPv
	ldr	x8, [sp, #128]
LBB17_53:
	mov	x23, #9362                      ; =0x2492
	movk	x23, #37449, lsl #16
	movk	x23, #18724, lsl #32
	movk	x23, #1170, lsl #48
	str	x26, [sp, #120]
	cmp	x26, x8
	b.lo	LBB17_13
LBB17_54:
	ldr	x19, [sp, #112]
	sub	x27, x26, x19
	asr	x24, x27, #3
	mul	x21, x24, x20
	add	x9, x21, #1
	cmp	x9, x23
	b.hi	LBB17_197
; %bb.55:
	sub	x8, x8, x19
	asr	x8, x8, #3
	mul	x8, x8, x20
	lsl	x10, x8, #1
	cmp	x10, x9
	csel	x9, x10, x9, hi
	mov	x10, #37449                     ; =0x9249
	movk	x10, #18724, lsl #16
	movk	x10, #9362, lsl #32
	movk	x10, #585, lsl #48
	cmp	x8, x10
	csel	x28, x9, x23, lo
	cbz	x28, LBB17_58
; %bb.56:
	cmp	x28, x23
	b.hi	LBB17_204
; %bb.57:
	lsl	x8, x28, #6
	sub	x0, x8, x28, lsl #3
Ltmp535:
	bl	__Znwm
Ltmp536:
	b	LBB17_59
LBB17_58:
	mov	x0, #0                          ; =0x0
LBB17_59:
	mov	w8, #56                         ; =0x38
	madd	x25, x21, x8, x0
	mov	w8, #13                         ; =0xd
Lloh228:
	adrp	x9, l_.str.10@PAGE
Lloh229:
	add	x9, x9, l_.str.10@PAGEOFF
	strb	w8, [x25, #23]
	ldr	x8, [x9]
	str	x8, [x25]
	ldur	x8, [x9, #5]
	stur	x8, [x25, #5]
	strb	wzr, [x25, #13]
	mov	w8, #3                          ; =0x3
	str	w8, [x25, #24]
	str	x8, [x25, #32]
	strb	wzr, [x25, #40]
	strb	wzr, [x25, #48]
	cmp	x19, x26
	b.eq	LBB17_70
; %bb.60:
	stp	x28, x27, [sp, #8]              ; 16-byte Folded Spill
	mov	x23, #0                         ; =0x0
	mov	x8, #37449                      ; =0x9249
	movk	x8, #18724, lsl #16
	movk	x8, #9362, lsl #32
	movk	x8, #37449, lsl #48
	mul	x8, x24, x8
	mov	w9, #56                         ; =0x38
	mul	x8, x8, x9
	madd	x8, x21, x9, x8
	str	x0, [sp]                        ; 8-byte Folded Spill
	add	x24, x0, x8
	mov	w27, #-1                        ; =0xffffffff
Lloh230:
	adrp	x20, l___const._ZNSt3__116__variant_detail12__visitation6__base14__visit_alt_atB8ne200100IZNS0_6__ctorINS0_8__traitsIJNS_9monostateEdiNS_12basic_stringIcNS_11char_traitsIcEENS_9allocatorIcEEEEcN10playground12_GLOBAL__N_17arr_msgENS_4pairIddEEEEEE19__generic_constructB8ne200100INS0_18__move_constructorISI_LNS0_6_TraitE1EEEEEvRSJ_OT_EUlSQ_E_JSN_EEEDcmSQ_DpOT0_.__fdiagonal@PAGE
Lloh231:
	add	x20, x20, l___const._ZNSt3__116__variant_detail12__visitation6__base14__visit_alt_atB8ne200100IZNS0_6__ctorINS0_8__traitsIJNS_9monostateEdiNS_12basic_stringIcNS_11char_traitsIcEENS_9allocatorIcEEEEcN10playground12_GLOBAL__N_17arr_msgENS_4pairIddEEEEEE19__generic_constructB8ne200100INS0_18__move_constructorISI_LNS0_6_TraitE1EEEEEvRSJ_OT_EUlSQ_E_JSN_EEEDcmSQ_DpOT0_.__fdiagonal@PAGEOFF
	b	LBB17_62
LBB17_61:                               ;   in Loop: Header=BB17_62 Depth=1
	ldr	q0, [x21, #32]
	ldrb	w8, [x21, #48]
	strb	w8, [x28, #48]
	str	q0, [x28, #32]
	add	x23, x23, #56
	add	x8, x19, x23
	cmp	x8, x26
	b.eq	LBB17_65
LBB17_62:                               ; =>This Inner Loop Header: Depth=1
	add	x28, x24, x23
	add	x21, x19, x23
	strb	wzr, [x28]
	str	w27, [x28, #24]
	ldr	w22, [x21, #24]
	cmn	w22, #1
	b.eq	LBB17_61
; %bb.63:                               ;   in Loop: Header=BB17_62 Depth=1
	str	x28, [sp, #24]
	ldr	x8, [x20, w22, uxtw #3]
Ltmp539:
	add	x0, sp, #24
	mov	x1, x21
	blr	x8
Ltmp540:
; %bb.64:                               ;   in Loop: Header=BB17_62 Depth=1
	str	w22, [x28, #24]
	b	LBB17_61
LBB17_65:
	mov	w20, #-1                        ; =0xffffffff
Lloh232:
	adrp	x22, l___const._ZNSt3__116__variant_detail12__visitation6__base11__visit_altB8ne200100IZNS0_6__dtorINS0_8__traitsIJNS_9monostateEdiNS_12basic_stringIcNS_11char_traitsIcEENS_9allocatorIcEEEEcN10playground12_GLOBAL__N_17arr_msgENS_4pairIddEEEEELNS0_6_TraitE1EE9__destroyB8ne200100EvEUlRT_E_JRSK_EEEDcOSL_DpOT0_.__fmatrix@PAGE
Lloh233:
	add	x22, x22, l___const._ZNSt3__116__variant_detail12__visitation6__base11__visit_altB8ne200100IZNS0_6__dtorINS0_8__traitsIJNS_9monostateEdiNS_12basic_stringIcNS_11char_traitsIcEENS_9allocatorIcEEEEcN10playground12_GLOBAL__N_17arr_msgENS_4pairIddEEEEELNS0_6_TraitE1EE9__destroyB8ne200100EvEUlRT_E_JRSK_EEEDcOSL_DpOT0_.__fmatrix@PAGEOFF
	mov	x23, #9362                      ; =0x2492
	movk	x23, #37449, lsl #16
	movk	x23, #18724, lsl #32
	movk	x23, #1170, lsl #48
	ldp	x28, x27, [sp, #8]              ; 16-byte Folded Reload
	b	LBB17_67
LBB17_66:                               ;   in Loop: Header=BB17_67 Depth=1
	str	w20, [x19, #24]
	add	x19, x19, #56
	cmp	x19, x26
	b.eq	LBB17_69
LBB17_67:                               ; =>This Inner Loop Header: Depth=1
	ldr	w8, [x19, #24]
	cmn	w8, #1
	b.eq	LBB17_66
; %bb.68:                               ;   in Loop: Header=BB17_67 Depth=1
	ldr	x8, [x22, x8, lsl #3]
Ltmp542:
	add	x0, sp, #24
	mov	x1, x19
	blr	x8
Ltmp543:
	b	LBB17_66
LBB17_69:
	ldr	x19, [sp, #112]
	mov	x20, #28087                     ; =0x6db7
	movk	x20, #46811, lsl #16
	movk	x20, #56173, lsl #32
	movk	x20, #28086, lsl #48
	ldr	x0, [sp]                        ; 8-byte Folded Reload
LBB17_70:
	mov	w8, #56                         ; =0x38
	madd	x8, x28, x8, x0
	add	x26, x25, #56
	sub	x9, x25, x27
	stp	x9, x26, [sp, #112]
	str	x8, [sp, #128]
	cbz	x19, LBB17_72
; %bb.71:
	mov	x0, x19
	bl	__ZdlPv
LBB17_72:
	str	x26, [sp, #120]
	ldr	x8, [sp, #128]
	cmp	x26, x8
	b.hs	LBB17_74
; %bb.73:
	mov	w8, #99                         ; =0x63
	strb	w8, [x26]
	mov	w8, #4                          ; =0x4
	str	w8, [x26, #24]
	str	x8, [x26, #32]
	strb	wzr, [x26, #40]
	add	x20, x26, #56
	strb	wzr, [x26, #48]
	b	LBB17_93
LBB17_74:
	ldr	x19, [sp, #112]
	sub	x25, x26, x19
	asr	x24, x25, #3
	mul	x21, x24, x20
	add	x9, x21, #1
	cmp	x9, x23
	b.hi	LBB17_198
; %bb.75:
	sub	x8, x8, x19
	asr	x8, x8, #3
	mul	x8, x8, x20
	lsl	x10, x8, #1
	cmp	x10, x9
	csel	x9, x10, x9, hi
	mov	x10, #37449                     ; =0x9249
	movk	x10, #18724, lsl #16
	movk	x10, #9362, lsl #32
	movk	x10, #585, lsl #48
	cmp	x8, x10
	csel	x20, x9, x23, lo
	cbz	x20, LBB17_78
; %bb.76:
	cmp	x20, x23
	b.hi	LBB17_205
; %bb.77:
	lsl	x8, x20, #6
	sub	x0, x8, x20, lsl #3
Ltmp548:
	bl	__Znwm
Ltmp549:
	b	LBB17_79
LBB17_78:
	mov	x0, #0                          ; =0x0
LBB17_79:
	mov	w27, #56                        ; =0x38
	madd	x23, x21, x27, x0
	mov	w8, #99                         ; =0x63
	strb	w8, [x23]
	mov	w8, #4                          ; =0x4
	str	w8, [x23, #24]
	str	x8, [x23, #32]
	strb	wzr, [x23, #40]
	strb	wzr, [x23, #48]
	cmp	x19, x26
	b.eq	LBB17_90
; %bb.80:
	stp	x20, x25, [sp, #8]              ; 16-byte Folded Spill
	mov	x25, #0                         ; =0x0
	mov	x8, #37449                      ; =0x9249
	movk	x8, #18724, lsl #16
	movk	x8, #9362, lsl #32
	movk	x8, #37449, lsl #48
	mul	x8, x24, x8
	mov	w9, #56                         ; =0x38
	mul	x8, x8, x9
	madd	x8, x21, x9, x8
	str	x0, [sp]                        ; 8-byte Folded Spill
	add	x24, x0, x8
	mov	w27, #-1                        ; =0xffffffff
Lloh234:
	adrp	x20, l___const._ZNSt3__116__variant_detail12__visitation6__base14__visit_alt_atB8ne200100IZNS0_6__ctorINS0_8__traitsIJNS_9monostateEdiNS_12basic_stringIcNS_11char_traitsIcEENS_9allocatorIcEEEEcN10playground12_GLOBAL__N_17arr_msgENS_4pairIddEEEEEE19__generic_constructB8ne200100INS0_18__move_constructorISI_LNS0_6_TraitE1EEEEEvRSJ_OT_EUlSQ_E_JSN_EEEDcmSQ_DpOT0_.__fdiagonal@PAGE
Lloh235:
	add	x20, x20, l___const._ZNSt3__116__variant_detail12__visitation6__base14__visit_alt_atB8ne200100IZNS0_6__ctorINS0_8__traitsIJNS_9monostateEdiNS_12basic_stringIcNS_11char_traitsIcEENS_9allocatorIcEEEEcN10playground12_GLOBAL__N_17arr_msgENS_4pairIddEEEEEE19__generic_constructB8ne200100INS0_18__move_constructorISI_LNS0_6_TraitE1EEEEEvRSJ_OT_EUlSQ_E_JSN_EEEDcmSQ_DpOT0_.__fdiagonal@PAGEOFF
	b	LBB17_82
LBB17_81:                               ;   in Loop: Header=BB17_82 Depth=1
	ldr	q0, [x21, #32]
	ldrb	w8, [x21, #48]
	strb	w8, [x28, #48]
	str	q0, [x28, #32]
	add	x25, x25, #56
	add	x8, x19, x25
	cmp	x8, x26
	b.eq	LBB17_85
LBB17_82:                               ; =>This Inner Loop Header: Depth=1
	add	x28, x24, x25
	add	x21, x19, x25
	strb	wzr, [x28]
	str	w27, [x28, #24]
	ldr	w22, [x21, #24]
	cmn	w22, #1
	b.eq	LBB17_81
; %bb.83:                               ;   in Loop: Header=BB17_82 Depth=1
	str	x28, [sp, #24]
	ldr	x8, [x20, w22, uxtw #3]
Ltmp552:
	add	x0, sp, #24
	mov	x1, x21
	blr	x8
Ltmp553:
; %bb.84:                               ;   in Loop: Header=BB17_82 Depth=1
	str	w22, [x28, #24]
	b	LBB17_81
LBB17_85:
	mov	w20, #-1                        ; =0xffffffff
Lloh236:
	adrp	x22, l___const._ZNSt3__116__variant_detail12__visitation6__base11__visit_altB8ne200100IZNS0_6__dtorINS0_8__traitsIJNS_9monostateEdiNS_12basic_stringIcNS_11char_traitsIcEENS_9allocatorIcEEEEcN10playground12_GLOBAL__N_17arr_msgENS_4pairIddEEEEELNS0_6_TraitE1EE9__destroyB8ne200100EvEUlRT_E_JRSK_EEEDcOSL_DpOT0_.__fmatrix@PAGE
Lloh237:
	add	x22, x22, l___const._ZNSt3__116__variant_detail12__visitation6__base11__visit_altB8ne200100IZNS0_6__dtorINS0_8__traitsIJNS_9monostateEdiNS_12basic_stringIcNS_11char_traitsIcEENS_9allocatorIcEEEEcN10playground12_GLOBAL__N_17arr_msgENS_4pairIddEEEEELNS0_6_TraitE1EE9__destroyB8ne200100EvEUlRT_E_JRSK_EEEDcOSL_DpOT0_.__fmatrix@PAGEOFF
	ldr	x25, [sp, #16]                  ; 8-byte Folded Reload
	mov	w27, #56                        ; =0x38
	b	LBB17_87
LBB17_86:                               ;   in Loop: Header=BB17_87 Depth=1
	str	w20, [x19, #24]
	add	x19, x19, #56
	cmp	x19, x26
	b.eq	LBB17_89
LBB17_87:                               ; =>This Inner Loop Header: Depth=1
	ldr	w8, [x19, #24]
	cmn	w8, #1
	b.eq	LBB17_86
; %bb.88:                               ;   in Loop: Header=BB17_87 Depth=1
	ldr	x8, [x22, x8, lsl #3]
Ltmp555:
	add	x0, sp, #24
	mov	x1, x19
	blr	x8
Ltmp556:
	b	LBB17_86
LBB17_89:
	ldr	x19, [sp, #112]
	ldp	x0, x20, [sp]                   ; 16-byte Folded Reload
LBB17_90:
	madd	x8, x20, x27, x0
	add	x20, x23, #56
	sub	x9, x23, x25
	stp	x9, x20, [sp, #112]
	str	x8, [sp, #128]
	cbz	x19, LBB17_92
; %bb.91:
	mov	x0, x19
	bl	__ZdlPv
LBB17_92:
	mov	x23, #9362                      ; =0x2492
	movk	x23, #37449, lsl #16
	movk	x23, #18724, lsl #32
	movk	x23, #1170, lsl #48
LBB17_93:
	str	x20, [sp, #120]
	movi	d0, #0x000000ffffffff
	stur	d0, [x29, #-112]
	mov	w8, #1                          ; =0x1
	stur	w8, [x29, #-104]
	sub	x8, x29, #112
	mov	w9, #3                          ; =0x3
	stp	x8, x9, [sp, #24]
Ltmp561:
	add	x8, sp, #96
	sub	x0, x29, #113
	add	x1, sp, #24
	bl	__ZNSt3__115allocate_sharedB8ne200100INS_6vectorIiNS_9allocatorIiEEEENS2_IS4_EEJSt16initializer_listIiEELi0EEENS_10shared_ptrIT_EERKT0_DpOT1_
Ltmp562:
; %bb.94:
	ldp	x21, x24, [sp, #96]
	stp	xzr, xzr, [sp, #96]
	stp	x21, x24, [sp, #24]
	stp	xzr, xzr, [sp, #80]
	ldp	x27, x8, [sp, #120]
	cmp	x27, x8
	mov	x20, #28087                     ; =0x6db7
	movk	x20, #46811, lsl #16
	movk	x20, #56173, lsl #32
	movk	x20, #28086, lsl #48
	b.hs	LBB17_97
; %bb.95:
	stp	x21, x24, [x27]
	mov	w8, #5                          ; =0x5
	str	w8, [x27, #24]
	str	x8, [x27, #32]
	strb	wzr, [x27, #40]
	add	x26, x27, #56
	strb	wzr, [x27, #48]
	str	x26, [sp, #120]
	ldr	x8, [sp, #128]
	cmp	x26, x8
	b.hs	LBB17_116
LBB17_96:
Lloh238:
	adrp	x9, lCPI17_0@PAGE
Lloh239:
	ldr	q0, [x9, lCPI17_0@PAGEOFF]
	str	q0, [x26]
	mov	w9, #6                          ; =0x6
	str	w9, [x26, #24]
	str	x9, [x26, #32]
	strb	wzr, [x26, #40]
	strb	wzr, [x26, #48]
	add	x26, x26, #56
	b	LBB17_134
LBB17_97:
	ldr	x19, [sp, #112]
	sub	x26, x27, x19
	asr	x28, x26, #3
	mul	x25, x28, x20
	add	x9, x25, #1
	cmp	x9, x23
	b.hi	LBB17_199
; %bb.98:
	sub	x8, x8, x19
	asr	x8, x8, #3
	mul	x8, x8, x20
	lsl	x10, x8, #1
	cmp	x10, x9
	csel	x9, x10, x9, hi
	mov	x10, #37449                     ; =0x9249
	movk	x10, #18724, lsl #16
	movk	x10, #9362, lsl #32
	movk	x10, #585, lsl #48
	cmp	x8, x10
	csel	x8, x9, x23, lo
	str	x8, [sp, #16]                   ; 8-byte Folded Spill
	cbz	x8, LBB17_101
; %bb.99:
	cmp	x8, x23
	b.hi	LBB17_206
; %bb.100:
	mov	x9, x8
	lsl	x8, x8, #6
	sub	x0, x8, x9, lsl #3
Ltmp564:
	bl	__Znwm
Ltmp565:
	b	LBB17_102
LBB17_101:
	mov	x0, #0                          ; =0x0
LBB17_102:
	stp	x0, x26, [sp]                   ; 16-byte Folded Spill
	mov	w26, #56                        ; =0x38
	madd	x23, x25, x26, x0
	stp	x21, x24, [x23]
	stp	xzr, xzr, [sp, #24]
	mov	w8, #5                          ; =0x5
	str	w8, [x23, #24]
	str	x8, [x23, #32]
	strb	wzr, [x23, #40]
	strb	wzr, [x23, #48]
	cmp	x19, x27
	b.eq	LBB17_113
; %bb.103:
	mov	x24, #0                         ; =0x0
	mov	x8, #37449                      ; =0x9249
	movk	x8, #18724, lsl #16
	movk	x8, #9362, lsl #32
	movk	x8, #37449, lsl #48
	mul	x8, x28, x8
	mov	w9, #56                         ; =0x38
	mul	x8, x8, x9
	madd	x8, x25, x9, x8
	add	x25, x0, x8
	mov	w28, #-1                        ; =0xffffffff
Lloh240:
	adrp	x20, l___const._ZNSt3__116__variant_detail12__visitation6__base14__visit_alt_atB8ne200100IZNS0_6__ctorINS0_8__traitsIJNS_9monostateEdiNS_12basic_stringIcNS_11char_traitsIcEENS_9allocatorIcEEEEcN10playground12_GLOBAL__N_17arr_msgENS_4pairIddEEEEEE19__generic_constructB8ne200100INS0_18__move_constructorISI_LNS0_6_TraitE1EEEEEvRSJ_OT_EUlSQ_E_JSN_EEEDcmSQ_DpOT0_.__fdiagonal@PAGE
Lloh241:
	add	x20, x20, l___const._ZNSt3__116__variant_detail12__visitation6__base14__visit_alt_atB8ne200100IZNS0_6__ctorINS0_8__traitsIJNS_9monostateEdiNS_12basic_stringIcNS_11char_traitsIcEENS_9allocatorIcEEEEcN10playground12_GLOBAL__N_17arr_msgENS_4pairIddEEEEEE19__generic_constructB8ne200100INS0_18__move_constructorISI_LNS0_6_TraitE1EEEEEvRSJ_OT_EUlSQ_E_JSN_EEEDcmSQ_DpOT0_.__fdiagonal@PAGEOFF
	b	LBB17_106
LBB17_104:                              ;   in Loop: Header=BB17_106 Depth=1
	str	w22, [x26, #24]
LBB17_105:                              ;   in Loop: Header=BB17_106 Depth=1
	ldr	q0, [x21, #32]
	ldrb	w8, [x21, #48]
	strb	w8, [x26, #48]
	str	q0, [x26, #32]
	add	x24, x24, #56
	add	x8, x19, x24
	cmp	x8, x27
	b.eq	LBB17_108
LBB17_106:                              ; =>This Inner Loop Header: Depth=1
	add	x26, x25, x24
	add	x21, x19, x24
	strb	wzr, [x26]
	str	w28, [x26, #24]
	ldr	w22, [x21, #24]
	cmn	w22, #1
	b.eq	LBB17_105
; %bb.107:                              ;   in Loop: Header=BB17_106 Depth=1
	stur	x26, [x29, #-112]
	ldr	x8, [x20, w22, uxtw #3]
Ltmp568:
	sub	x0, x29, #112
	mov	x1, x21
	blr	x8
Ltmp569:
	b	LBB17_104
LBB17_108:
	mov	w20, #-1                        ; =0xffffffff
Lloh242:
	adrp	x22, l___const._ZNSt3__116__variant_detail12__visitation6__base11__visit_altB8ne200100IZNS0_6__dtorINS0_8__traitsIJNS_9monostateEdiNS_12basic_stringIcNS_11char_traitsIcEENS_9allocatorIcEEEEcN10playground12_GLOBAL__N_17arr_msgENS_4pairIddEEEEELNS0_6_TraitE1EE9__destroyB8ne200100EvEUlRT_E_JRSK_EEEDcOSL_DpOT0_.__fmatrix@PAGE
Lloh243:
	add	x22, x22, l___const._ZNSt3__116__variant_detail12__visitation6__base11__visit_altB8ne200100IZNS0_6__dtorINS0_8__traitsIJNS_9monostateEdiNS_12basic_stringIcNS_11char_traitsIcEENS_9allocatorIcEEEEcN10playground12_GLOBAL__N_17arr_msgENS_4pairIddEEEEELNS0_6_TraitE1EE9__destroyB8ne200100EvEUlRT_E_JRSK_EEEDcOSL_DpOT0_.__fmatrix@PAGEOFF
	mov	w26, #56                        ; =0x38
	b	LBB17_110
LBB17_109:                              ;   in Loop: Header=BB17_110 Depth=1
	str	w20, [x19, #24]
	add	x19, x19, #56
	cmp	x19, x27
	b.eq	LBB17_112
LBB17_110:                              ; =>This Inner Loop Header: Depth=1
	ldr	w8, [x19, #24]
	cmn	w8, #1
	b.eq	LBB17_109
; %bb.111:                              ;   in Loop: Header=BB17_110 Depth=1
	ldr	x8, [x22, x8, lsl #3]
Ltmp571:
	sub	x0, x29, #112
	mov	x1, x19
	blr	x8
Ltmp572:
	b	LBB17_109
LBB17_112:
	ldr	x19, [sp, #112]
	mov	x20, #28087                     ; =0x6db7
	movk	x20, #46811, lsl #16
	movk	x20, #56173, lsl #32
	movk	x20, #28086, lsl #48
LBB17_113:
	ldr	x8, [sp, #16]                   ; 8-byte Folded Reload
	ldp	x10, x9, [sp]                   ; 16-byte Folded Reload
	madd	x8, x8, x26, x10
	add	x26, x23, #56
	sub	x9, x23, x9
	stp	x9, x26, [sp, #112]
	str	x8, [sp, #128]
	cbz	x19, LBB17_115
; %bb.114:
	mov	x0, x19
	bl	__ZdlPv
LBB17_115:
	mov	x23, #9362                      ; =0x2492
	movk	x23, #37449, lsl #16
	movk	x23, #18724, lsl #32
	movk	x23, #1170, lsl #48
	str	x26, [sp, #120]
	ldr	x8, [sp, #128]
	cmp	x26, x8
	b.lo	LBB17_96
LBB17_116:
	ldr	x19, [sp, #112]
	sub	x27, x26, x19
	asr	x24, x27, #3
	mul	x21, x24, x20
	add	x9, x21, #1
	cmp	x9, x23
	b.hi	LBB17_200
; %bb.117:
	sub	x8, x8, x19
	asr	x8, x8, #3
	mul	x8, x8, x20
	lsl	x10, x8, #1
	cmp	x10, x9
	csel	x9, x10, x9, hi
	mov	x10, #37449                     ; =0x9249
	movk	x10, #18724, lsl #16
	movk	x10, #9362, lsl #32
	movk	x10, #585, lsl #48
	cmp	x8, x10
	csel	x28, x9, x23, lo
	cbz	x28, LBB17_120
; %bb.118:
	cmp	x28, x23
	b.hi	LBB17_207
; %bb.119:
	lsl	x8, x28, #6
	sub	x0, x8, x28, lsl #3
Ltmp577:
	bl	__Znwm
Ltmp578:
	b	LBB17_121
LBB17_120:
	mov	x0, #0                          ; =0x0
LBB17_121:
	mov	w9, #56                         ; =0x38
Lloh244:
	adrp	x8, lCPI17_0@PAGE
Lloh245:
	ldr	q0, [x8, lCPI17_0@PAGEOFF]
	madd	x25, x21, x9, x0
	str	q0, [x25]
	mov	w8, #6                          ; =0x6
	str	w8, [x25, #24]
	str	x8, [x25, #32]
	strb	wzr, [x25, #40]
	strb	wzr, [x25, #48]
	cmp	x19, x26
	str	x0, [sp, #16]                   ; 8-byte Folded Spill
	b.eq	LBB17_132
; %bb.122:
	stp	x28, x27, [sp]                  ; 16-byte Folded Spill
	mov	x23, #0                         ; =0x0
	mov	x8, #37449                      ; =0x9249
	movk	x8, #18724, lsl #16
	movk	x8, #9362, lsl #32
	movk	x8, #37449, lsl #48
	mul	x8, x24, x8
	mov	w9, #56                         ; =0x38
	mul	x8, x8, x9
	madd	x8, x21, x9, x8
	add	x24, x0, x8
	mov	w27, #-1                        ; =0xffffffff
Lloh246:
	adrp	x20, l___const._ZNSt3__116__variant_detail12__visitation6__base14__visit_alt_atB8ne200100IZNS0_6__ctorINS0_8__traitsIJNS_9monostateEdiNS_12basic_stringIcNS_11char_traitsIcEENS_9allocatorIcEEEEcN10playground12_GLOBAL__N_17arr_msgENS_4pairIddEEEEEE19__generic_constructB8ne200100INS0_18__move_constructorISI_LNS0_6_TraitE1EEEEEvRSJ_OT_EUlSQ_E_JSN_EEEDcmSQ_DpOT0_.__fdiagonal@PAGE
Lloh247:
	add	x20, x20, l___const._ZNSt3__116__variant_detail12__visitation6__base14__visit_alt_atB8ne200100IZNS0_6__ctorINS0_8__traitsIJNS_9monostateEdiNS_12basic_stringIcNS_11char_traitsIcEENS_9allocatorIcEEEEcN10playground12_GLOBAL__N_17arr_msgENS_4pairIddEEEEEE19__generic_constructB8ne200100INS0_18__move_constructorISI_LNS0_6_TraitE1EEEEEvRSJ_OT_EUlSQ_E_JSN_EEEDcmSQ_DpOT0_.__fdiagonal@PAGEOFF
	b	LBB17_124
LBB17_123:                              ;   in Loop: Header=BB17_124 Depth=1
	ldr	q0, [x21, #32]
	ldrb	w8, [x21, #48]
	strb	w8, [x28, #48]
	str	q0, [x28, #32]
	add	x23, x23, #56
	add	x8, x19, x23
	cmp	x8, x26
	b.eq	LBB17_127
LBB17_124:                              ; =>This Inner Loop Header: Depth=1
	add	x28, x24, x23
	add	x21, x19, x23
	strb	wzr, [x28]
	str	w27, [x28, #24]
	ldr	w22, [x21, #24]
	cmn	w22, #1
	b.eq	LBB17_123
; %bb.125:                              ;   in Loop: Header=BB17_124 Depth=1
	str	x28, [sp, #24]
	ldr	x8, [x20, w22, uxtw #3]
Ltmp581:
	add	x0, sp, #24
	mov	x1, x21
	blr	x8
Ltmp582:
; %bb.126:                              ;   in Loop: Header=BB17_124 Depth=1
	str	w22, [x28, #24]
	b	LBB17_123
LBB17_127:
	mov	w20, #-1                        ; =0xffffffff
Lloh248:
	adrp	x22, l___const._ZNSt3__116__variant_detail12__visitation6__base11__visit_altB8ne200100IZNS0_6__dtorINS0_8__traitsIJNS_9monostateEdiNS_12basic_stringIcNS_11char_traitsIcEENS_9allocatorIcEEEEcN10playground12_GLOBAL__N_17arr_msgENS_4pairIddEEEEELNS0_6_TraitE1EE9__destroyB8ne200100EvEUlRT_E_JRSK_EEEDcOSL_DpOT0_.__fmatrix@PAGE
Lloh249:
	add	x22, x22, l___const._ZNSt3__116__variant_detail12__visitation6__base11__visit_altB8ne200100IZNS0_6__dtorINS0_8__traitsIJNS_9monostateEdiNS_12basic_stringIcNS_11char_traitsIcEENS_9allocatorIcEEEEcN10playground12_GLOBAL__N_17arr_msgENS_4pairIddEEEEELNS0_6_TraitE1EE9__destroyB8ne200100EvEUlRT_E_JRSK_EEEDcOSL_DpOT0_.__fmatrix@PAGEOFF
	mov	x23, #9362                      ; =0x2492
	movk	x23, #37449, lsl #16
	movk	x23, #18724, lsl #32
	movk	x23, #1170, lsl #48
	ldp	x28, x27, [sp]                  ; 16-byte Folded Reload
	b	LBB17_129
LBB17_128:                              ;   in Loop: Header=BB17_129 Depth=1
	str	w20, [x19, #24]
	add	x19, x19, #56
	cmp	x19, x26
	b.eq	LBB17_131
LBB17_129:                              ; =>This Inner Loop Header: Depth=1
	ldr	w8, [x19, #24]
	cmn	w8, #1
	b.eq	LBB17_128
; %bb.130:                              ;   in Loop: Header=BB17_129 Depth=1
	ldr	x8, [x22, x8, lsl #3]
Ltmp584:
	add	x0, sp, #24
	mov	x1, x19
	blr	x8
Ltmp585:
	b	LBB17_128
LBB17_131:
	ldr	x19, [sp, #112]
	mov	x20, #28087                     ; =0x6db7
	movk	x20, #46811, lsl #16
	movk	x20, #56173, lsl #32
	movk	x20, #28086, lsl #48
LBB17_132:
	ldr	x8, [sp, #16]                   ; 8-byte Folded Reload
	mov	w9, #56                         ; =0x38
	madd	x8, x28, x9, x8
	add	x26, x25, #56
	sub	x9, x25, x27
	stp	x9, x26, [sp, #112]
	str	x8, [sp, #128]
	cbz	x19, LBB17_134
; %bb.133:
	mov	x0, x19
	bl	__ZdlPv
	ldr	x8, [sp, #128]
LBB17_134:
	str	x26, [sp, #120]
	str	wzr, [sp, #48]
	add	x21, sp, #24
	mov	w9, #7                          ; =0x7
	str	x9, [sp, #56]
	strb	wzr, [sp, #64]
	strb	wzr, [sp, #72]
	cmp	x26, x8
	b.hs	LBB17_136
; %bb.135:
	mov	w8, #0                          ; =0x0
	strb	wzr, [x26]
	str	wzr, [x26, #24]
	ldur	q0, [x21, #32]
	str	q0, [x26, #32]
	ldurb	w9, [x21, #48]
	strb	w9, [x26, #48]
	add	x9, x26, #56
	str	x9, [sp, #120]
	b	LBB17_156
LBB17_136:
	ldr	x19, [sp, #112]
	sub	x25, x26, x19
	asr	x24, x25, #3
	mul	x28, x24, x20
	add	x9, x28, #1
	cmp	x9, x23
	b.hi	LBB17_201
; %bb.137:
	sub	x8, x8, x19
	asr	x8, x8, #3
	mul	x8, x8, x20
	lsl	x10, x8, #1
	cmp	x10, x9
	csel	x9, x10, x9, hi
	mov	x10, #37449                     ; =0x9249
	movk	x10, #18724, lsl #16
	movk	x10, #9362, lsl #32
	movk	x10, #585, lsl #48
	cmp	x8, x10
	csel	x27, x9, x23, lo
	cbz	x27, LBB17_140
; %bb.138:
	cmp	x27, x23
	b.hi	LBB17_208
; %bb.139:
	lsl	x8, x27, #6
	sub	x0, x8, x27, lsl #3
Ltmp590:
	bl	__Znwm
Ltmp591:
	b	LBB17_141
LBB17_140:
	mov	x0, #0                          ; =0x0
LBB17_141:
	mov	w8, #56                         ; =0x38
	madd	x23, x28, x8, x0
	strb	wzr, [x23]
	str	wzr, [x23, #24]
	ldur	q0, [x21, #32]
	str	q0, [x23, #32]
	ldurb	w8, [x21, #48]
	strb	w8, [x23, #48]
	cmp	x19, x26
	str	x0, [sp, #16]                   ; 8-byte Folded Spill
	b.eq	LBB17_152
; %bb.142:
	stp	x27, x25, [sp]                  ; 16-byte Folded Spill
	mov	x27, #0                         ; =0x0
	mov	x8, #37449                      ; =0x9249
	movk	x8, #18724, lsl #16
	movk	x8, #9362, lsl #32
	movk	x8, #37449, lsl #48
	mul	x8, x24, x8
	mov	w9, #56                         ; =0x38
	mul	x8, x8, x9
	madd	x8, x28, x9, x8
	add	x24, x0, x8
	mov	w28, #-1                        ; =0xffffffff
Lloh250:
	adrp	x20, l___const._ZNSt3__116__variant_detail12__visitation6__base14__visit_alt_atB8ne200100IZNS0_6__ctorINS0_8__traitsIJNS_9monostateEdiNS_12basic_stringIcNS_11char_traitsIcEENS_9allocatorIcEEEEcN10playground12_GLOBAL__N_17arr_msgENS_4pairIddEEEEEE19__generic_constructB8ne200100INS0_18__move_constructorISI_LNS0_6_TraitE1EEEEEvRSJ_OT_EUlSQ_E_JSN_EEEDcmSQ_DpOT0_.__fdiagonal@PAGE
Lloh251:
	add	x20, x20, l___const._ZNSt3__116__variant_detail12__visitation6__base14__visit_alt_atB8ne200100IZNS0_6__ctorINS0_8__traitsIJNS_9monostateEdiNS_12basic_stringIcNS_11char_traitsIcEENS_9allocatorIcEEEEcN10playground12_GLOBAL__N_17arr_msgENS_4pairIddEEEEEE19__generic_constructB8ne200100INS0_18__move_constructorISI_LNS0_6_TraitE1EEEEEvRSJ_OT_EUlSQ_E_JSN_EEEDcmSQ_DpOT0_.__fdiagonal@PAGEOFF
	b	LBB17_144
LBB17_143:                              ;   in Loop: Header=BB17_144 Depth=1
	ldr	q0, [x21, #32]
	ldrb	w8, [x21, #48]
	strb	w8, [x25, #48]
	str	q0, [x25, #32]
	add	x27, x27, #56
	add	x8, x19, x27
	cmp	x8, x26
	b.eq	LBB17_147
LBB17_144:                              ; =>This Inner Loop Header: Depth=1
	add	x25, x24, x27
	add	x21, x19, x27
	strb	wzr, [x25]
	str	w28, [x25, #24]
	ldr	w22, [x21, #24]
	cmn	w22, #1
	b.eq	LBB17_143
; %bb.145:                              ;   in Loop: Header=BB17_144 Depth=1
	stur	x25, [x29, #-112]
	ldr	x8, [x20, w22, uxtw #3]
Ltmp594:
	sub	x0, x29, #112
	mov	x1, x21
	blr	x8
Ltmp595:
; %bb.146:                              ;   in Loop: Header=BB17_144 Depth=1
	str	w22, [x25, #24]
	b	LBB17_143
LBB17_147:
	mov	w20, #-1                        ; =0xffffffff
Lloh252:
	adrp	x22, l___const._ZNSt3__116__variant_detail12__visitation6__base11__visit_altB8ne200100IZNS0_6__dtorINS0_8__traitsIJNS_9monostateEdiNS_12basic_stringIcNS_11char_traitsIcEENS_9allocatorIcEEEEcN10playground12_GLOBAL__N_17arr_msgENS_4pairIddEEEEELNS0_6_TraitE1EE9__destroyB8ne200100EvEUlRT_E_JRSK_EEEDcOSL_DpOT0_.__fmatrix@PAGE
Lloh253:
	add	x22, x22, l___const._ZNSt3__116__variant_detail12__visitation6__base11__visit_altB8ne200100IZNS0_6__dtorINS0_8__traitsIJNS_9monostateEdiNS_12basic_stringIcNS_11char_traitsIcEENS_9allocatorIcEEEEcN10playground12_GLOBAL__N_17arr_msgENS_4pairIddEEEEELNS0_6_TraitE1EE9__destroyB8ne200100EvEUlRT_E_JRSK_EEEDcOSL_DpOT0_.__fmatrix@PAGEOFF
	ldp	x27, x25, [sp]                  ; 16-byte Folded Reload
	b	LBB17_149
LBB17_148:                              ;   in Loop: Header=BB17_149 Depth=1
	str	w20, [x19, #24]
	add	x19, x19, #56
	cmp	x19, x26
	b.eq	LBB17_151
LBB17_149:                              ; =>This Inner Loop Header: Depth=1
	ldr	w8, [x19, #24]
	cmn	w8, #1
	b.eq	LBB17_148
; %bb.150:                              ;   in Loop: Header=BB17_149 Depth=1
	ldr	x8, [x22, x8, lsl #3]
Ltmp597:
	sub	x0, x29, #112
	mov	x1, x19
	blr	x8
Ltmp598:
	b	LBB17_148
LBB17_151:
	ldr	x19, [sp, #112]
	mov	x20, #28087                     ; =0x6db7
	movk	x20, #46811, lsl #16
	movk	x20, #56173, lsl #32
	movk	x20, #28086, lsl #48
	b	LBB17_153
LBB17_152:
Lloh254:
	adrp	x22, l___const._ZNSt3__116__variant_detail12__visitation6__base11__visit_altB8ne200100IZNS0_6__dtorINS0_8__traitsIJNS_9monostateEdiNS_12basic_stringIcNS_11char_traitsIcEENS_9allocatorIcEEEEcN10playground12_GLOBAL__N_17arr_msgENS_4pairIddEEEEELNS0_6_TraitE1EE9__destroyB8ne200100EvEUlRT_E_JRSK_EEEDcOSL_DpOT0_.__fmatrix@PAGE
Lloh255:
	add	x22, x22, l___const._ZNSt3__116__variant_detail12__visitation6__base11__visit_altB8ne200100IZNS0_6__dtorINS0_8__traitsIJNS_9monostateEdiNS_12basic_stringIcNS_11char_traitsIcEENS_9allocatorIcEEEEcN10playground12_GLOBAL__N_17arr_msgENS_4pairIddEEEEELNS0_6_TraitE1EE9__destroyB8ne200100EvEUlRT_E_JRSK_EEEDcOSL_DpOT0_.__fmatrix@PAGEOFF
LBB17_153:
	ldr	x8, [sp, #16]                   ; 8-byte Folded Reload
	mov	w9, #56                         ; =0x38
	madd	x8, x27, x9, x8
	add	x1, x23, #56
	sub	x9, x23, x25
	stp	x9, x1, [sp, #112]
	str	x8, [sp, #128]
	cbz	x19, LBB17_155
; %bb.154:
	mov	x0, x19
	mov	x19, x1
	bl	__ZdlPv
	mov	x1, x19
LBB17_155:
	ldr	w8, [sp, #48]
	str	x1, [sp, #120]
	cmn	w8, #1
	b.eq	LBB17_158
LBB17_156:
	ldr	x8, [x22, w8, uxtw #3]
Ltmp603:
	sub	x0, x29, #112
	add	x1, sp, #24
	blr	x8
Ltmp604:
; %bb.157:
	ldr	x1, [sp, #120]
LBB17_158:
	ldr	x0, [sp, #112]
	subs	x8, x1, x0
	asr	x8, x8, #3
	mul	x8, x8, x20
	clz	x8, x8
	mov	w9, #126                        ; =0x7e
	sub	x8, x9, x8, lsl #1
	cmp	x1, x0
	csel	x2, xzr, x8, eq
Ltmp606:
	mov	w3, #1                          ; =0x1
	bl	__ZNSt3__111__introsortINS_15_RangeAlgPolicyERNS_7greaterIN3msg7messageINS_7variantIJNS_9monostateEdiNS_12basic_stringIcNS_11char_traitsIcEENS_9allocatorIcEEEEcN10playground12_GLOBAL__N_17arr_msgENS_4pairIddEEEEEEEEEPSJ_Lb0EEEvT1_SN_T0_NS_15iterator_traitsISN_E15difference_typeEb
Ltmp607:
; %bb.159:
	ldp	x20, x21, [sp, #112]
	mov	x19, x20
	cmp	x20, x21
	b.eq	LBB17_163
; %bb.160:
	mov	x19, x20
LBB17_161:                              ; =>This Inner Loop Header: Depth=1
	ldr	w8, [x19, #24]
	cmp	w8, #3
	ccmp	w8, #5, #4, ne
	b.eq	LBB17_163
; %bb.162:                              ;   in Loop: Header=BB17_161 Depth=1
	add	x19, x19, #56
	cmp	x19, x21
	b.ne	LBB17_161
	b	LBB17_174
LBB17_163:
	cmp	x19, x21
	b.eq	LBB17_174
; %bb.164:
	sub	x20, x29, #112
Lloh256:
	adrp	x23, l___const._ZNSt3__116__variant_detail12__visitation6__base11__visit_altB8ne200100INS1_9__variant15__value_visitorIN10playground12_GLOBAL__N_112temp_visitorIJZNS6_11try_messageEvE3$_1ZNS6_11try_messageEvE3$_2ZNS6_11try_messageEvE3$_3EEEEEJRNS0_6__implIJNS_9monostateEdiNS_12basic_stringIcNS_11char_traitsIcEENS_9allocatorIcEEEEcNS7_7arr_msgENS_4pairIddEEEEEEEEDcOT_DpOT0_.__fmatrix@PAGE
Lloh257:
	add	x23, x23, l___const._ZNSt3__116__variant_detail12__visitation6__base11__visit_altB8ne200100INS1_9__variant15__value_visitorIN10playground12_GLOBAL__N_112temp_visitorIJZNS6_11try_messageEvE3$_1ZNS6_11try_messageEvE3$_2ZNS6_11try_messageEvE3$_3EEEEEJRNS0_6__implIJNS_9monostateEdiNS_12basic_stringIcNS_11char_traitsIcEENS_9allocatorIcEEEEcNS7_7arr_msgENS_4pairIddEEEEEEEEDcOT_DpOT0_.__fmatrix@PAGEOFF
	b	LBB17_166
LBB17_165:                              ;   in Loop: Header=BB17_166 Depth=1
	cmp	x19, x21
	b.eq	LBB17_173
LBB17_166:                              ; =>This Loop Header: Depth=1
                                        ;     Child Loop BB17_170 Depth 2
	ldr	w8, [x19, #24]
	cmn	w8, #1
	b.eq	LBB17_193
; %bb.167:                              ;   in Loop: Header=BB17_166 Depth=1
	str	x20, [sp, #24]
	ldr	x8, [x23, x8, lsl #3]
Ltmp608:
	add	x0, sp, #24
	mov	x1, x19
	blr	x8
Ltmp609:
; %bb.168:                              ;   in Loop: Header=BB17_166 Depth=1
	add	x9, x19, #56
	ldr	x8, [sp, #120]
	mov	x19, x8
	cmp	x9, x8
	b.eq	LBB17_165
; %bb.169:                              ;   in Loop: Header=BB17_166 Depth=1
	mov	x19, x9
LBB17_170:                              ;   Parent Loop BB17_166 Depth=1
                                        ; =>  This Inner Loop Header: Depth=2
	ldr	w9, [x19, #24]
	cmp	w9, #3
	ccmp	w9, #5, #4, ne
	b.eq	LBB17_165
; %bb.171:                              ;   in Loop: Header=BB17_170 Depth=2
	add	x19, x19, #56
	cmp	x19, x8
	b.ne	LBB17_170
; %bb.172:                              ;   in Loop: Header=BB17_166 Depth=1
	mov	x19, x8
	b	LBB17_165
LBB17_173:
	ldr	x20, [sp, #112]
	mov	x21, x8
LBB17_174:
	cmp	x20, x21
	b.eq	LBB17_179
; %bb.175:
	sub	x19, x29, #113
Lloh258:
	adrp	x23, l___const._ZNSt3__116__variant_detail12__visitation6__base11__visit_altB8ne200100INS1_9__variant15__value_visitorIN10playground12_GLOBAL__N_112temp_visitorIJZNS6_11try_messageEvE3$_5ZNS6_11try_messageEvE3$_6ZNS6_11try_messageEvE3$_7ZNS6_11try_messageEvE3$_8ZNS6_11try_messageEvE3$_9ZNS6_11try_messageEvE4$_10ZNS6_11try_messageEvE4$_11EEEEEJRKNS0_6__implIJNS_9monostateEdiNS_12basic_stringIcNS_11char_traitsIcEENS_9allocatorIcEEEEcNS7_7arr_msgENS_4pairIddEEEEEEEEDcOT_DpOT0_.__fmatrix@PAGE
Lloh259:
	add	x23, x23, l___const._ZNSt3__116__variant_detail12__visitation6__base11__visit_altB8ne200100INS1_9__variant15__value_visitorIN10playground12_GLOBAL__N_112temp_visitorIJZNS6_11try_messageEvE3$_5ZNS6_11try_messageEvE3$_6ZNS6_11try_messageEvE3$_7ZNS6_11try_messageEvE3$_8ZNS6_11try_messageEvE3$_9ZNS6_11try_messageEvE4$_10ZNS6_11try_messageEvE4$_11EEEEEJRKNS0_6__implIJNS_9monostateEdiNS_12basic_stringIcNS_11char_traitsIcEENS_9allocatorIcEEEEcNS7_7arr_msgENS_4pairIddEEEEEEEEDcOT_DpOT0_.__fmatrix@PAGEOFF
LBB17_176:                              ; =>This Inner Loop Header: Depth=1
	ldr	w8, [x20, #24]
	cmn	w8, #1
	b.eq	LBB17_192
; %bb.177:                              ;   in Loop: Header=BB17_176 Depth=1
	str	x19, [sp, #24]
	ldr	x8, [x23, x8, lsl #3]
Ltmp614:
	add	x0, sp, #24
	mov	x1, x20
	blr	x8
Ltmp615:
; %bb.178:                              ;   in Loop: Header=BB17_176 Depth=1
	add	x20, x20, #56
	cmp	x20, x21
	b.ne	LBB17_176
LBB17_179:
	ldr	x19, [sp, #104]
	cbz	x19, LBB17_181
; %bb.180:
	add	x8, x19, #8
	mov	x9, #-1                         ; =0xffffffffffffffff
	ldaddal	x9, x8, [x8]
	cbz	x8, LBB17_191
LBB17_181:
	ldr	x20, [sp, #112]
	cbz	x20, LBB17_189
LBB17_182:
	ldr	x21, [sp, #120]
	mov	x0, x20
	cmp	x21, x20
	b.eq	LBB17_188
; %bb.183:
	mov	w23, #-1                        ; =0xffffffff
	b	LBB17_185
LBB17_184:                              ;   in Loop: Header=BB17_185 Depth=1
	stur	w23, [x21, #-32]
	mov	x21, x19
	cmp	x19, x20
	b.eq	LBB17_187
LBB17_185:                              ; =>This Inner Loop Header: Depth=1
	sub	x19, x21, #56
	ldur	w8, [x21, #-32]
	cmn	w8, #1
	b.eq	LBB17_184
; %bb.186:                              ;   in Loop: Header=BB17_185 Depth=1
	ldr	x8, [x22, x8, lsl #3]
Ltmp620:
	add	x0, sp, #24
	mov	x1, x19
	blr	x8
Ltmp621:
	b	LBB17_184
LBB17_187:
	ldr	x0, [sp, #112]
LBB17_188:
	str	x20, [sp, #120]
	bl	__ZdlPv
LBB17_189:
	ldur	x8, [x29, #-96]
Lloh260:
	adrp	x9, ___stack_chk_guard@GOTPAGE
Lloh261:
	ldr	x9, [x9, ___stack_chk_guard@GOTPAGEOFF]
Lloh262:
	ldr	x9, [x9]
	cmp	x9, x8
	b.ne	LBB17_194
; %bb.190:
	ldp	x29, x30, [sp, #256]            ; 16-byte Folded Reload
	ldp	x20, x19, [sp, #240]            ; 16-byte Folded Reload
	ldp	x22, x21, [sp, #224]            ; 16-byte Folded Reload
	ldp	x24, x23, [sp, #208]            ; 16-byte Folded Reload
	ldp	x26, x25, [sp, #192]            ; 16-byte Folded Reload
	ldp	x28, x27, [sp, #176]            ; 16-byte Folded Reload
	add	sp, sp, #272
	ret
LBB17_191:
	ldr	x8, [x19]
	ldr	x8, [x8, #16]
	mov	x0, x19
	blr	x8
	mov	x0, x19
	bl	__ZNSt3__119__shared_weak_count14__release_weakEv
	ldr	x20, [sp, #112]
	cbnz	x20, LBB17_182
	b	LBB17_189
LBB17_192:
Ltmp617:
	bl	__ZNSt3__126__throw_bad_variant_accessB8ne200100Ev
Ltmp618:
	b	LBB17_209
LBB17_193:
Ltmp611:
	bl	__ZNSt3__126__throw_bad_variant_accessB8ne200100Ev
Ltmp612:
	b	LBB17_209
LBB17_194:
	bl	___stack_chk_fail
LBB17_195:
Ltmp519:
	bl	__ZNSt3__16vectorIN3msg7messageINS_7variantIJNS_9monostateEdiNS_12basic_stringIcNS_11char_traitsIcEENS_9allocatorIcEEEEcN10playground12_GLOBAL__N_17arr_msgENS_4pairIddEEEEEEENS8_ISH_EEE20__throw_length_errorB8ne200100Ev
Ltmp520:
	b	LBB17_209
LBB17_196:
Ltmp532:
	bl	__ZNSt3__16vectorIN3msg7messageINS_7variantIJNS_9monostateEdiNS_12basic_stringIcNS_11char_traitsIcEENS_9allocatorIcEEEEcN10playground12_GLOBAL__N_17arr_msgENS_4pairIddEEEEEEENS8_ISH_EEE20__throw_length_errorB8ne200100Ev
Ltmp533:
	b	LBB17_209
LBB17_197:
Ltmp545:
	bl	__ZNSt3__16vectorIN3msg7messageINS_7variantIJNS_9monostateEdiNS_12basic_stringIcNS_11char_traitsIcEENS_9allocatorIcEEEEcN10playground12_GLOBAL__N_17arr_msgENS_4pairIddEEEEEEENS8_ISH_EEE20__throw_length_errorB8ne200100Ev
Ltmp546:
	b	LBB17_209
LBB17_198:
Ltmp558:
	bl	__ZNSt3__16vectorIN3msg7messageINS_7variantIJNS_9monostateEdiNS_12basic_stringIcNS_11char_traitsIcEENS_9allocatorIcEEEEcN10playground12_GLOBAL__N_17arr_msgENS_4pairIddEEEEEEENS8_ISH_EEE20__throw_length_errorB8ne200100Ev
Ltmp559:
	b	LBB17_209
LBB17_199:
Ltmp574:
	bl	__ZNSt3__16vectorIN3msg7messageINS_7variantIJNS_9monostateEdiNS_12basic_stringIcNS_11char_traitsIcEENS_9allocatorIcEEEEcN10playground12_GLOBAL__N_17arr_msgENS_4pairIddEEEEEEENS8_ISH_EEE20__throw_length_errorB8ne200100Ev
Ltmp575:
	b	LBB17_209
LBB17_200:
Ltmp587:
	bl	__ZNSt3__16vectorIN3msg7messageINS_7variantIJNS_9monostateEdiNS_12basic_stringIcNS_11char_traitsIcEENS_9allocatorIcEEEEcN10playground12_GLOBAL__N_17arr_msgENS_4pairIddEEEEEEENS8_ISH_EEE20__throw_length_errorB8ne200100Ev
Ltmp588:
	b	LBB17_209
LBB17_201:
Ltmp600:
	bl	__ZNSt3__16vectorIN3msg7messageINS_7variantIJNS_9monostateEdiNS_12basic_stringIcNS_11char_traitsIcEENS_9allocatorIcEEEEcN10playground12_GLOBAL__N_17arr_msgENS_4pairIddEEEEEEENS8_ISH_EEE20__throw_length_errorB8ne200100Ev
Ltmp601:
	b	LBB17_209
LBB17_202:
Ltmp511:
	bl	__ZSt28__throw_bad_array_new_lengthB8ne200100v
Ltmp512:
	b	LBB17_209
LBB17_203:
Ltmp524:
	bl	__ZSt28__throw_bad_array_new_lengthB8ne200100v
Ltmp525:
	b	LBB17_209
LBB17_204:
Ltmp537:
	bl	__ZSt28__throw_bad_array_new_lengthB8ne200100v
Ltmp538:
	b	LBB17_209
LBB17_205:
Ltmp550:
	bl	__ZSt28__throw_bad_array_new_lengthB8ne200100v
Ltmp551:
	b	LBB17_209
LBB17_206:
Ltmp566:
	bl	__ZSt28__throw_bad_array_new_lengthB8ne200100v
Ltmp567:
	b	LBB17_209
LBB17_207:
Ltmp579:
	bl	__ZSt28__throw_bad_array_new_lengthB8ne200100v
Ltmp580:
	b	LBB17_209
LBB17_208:
Ltmp592:
	bl	__ZSt28__throw_bad_array_new_lengthB8ne200100v
Ltmp593:
LBB17_209:
	brk	#0x1
LBB17_210:
Ltmp605:
	b	LBB17_237
LBB17_211:
Ltmp563:
	mov	x19, x0
	b	LBB17_245
LBB17_212:
Ltmp505:
	mov	x19, x0
	add	x0, sp, #24
	bl	__ZNSt3__114__split_bufferIN3msg7messageINS_7variantIJNS_9monostateEdiNS_12basic_stringIcNS_11char_traitsIcEENS_9allocatorIcEEEEcN10playground12_GLOBAL__N_17arr_msgENS_4pairIddEEEEEEERNS8_ISH_EEED1Ev
	b	LBB17_245
LBB17_213:
Ltmp502:
	mov	x19, x0
	b	LBB17_245
LBB17_214:
Ltmp602:
	mov	x19, x0
	add	x0, sp, #24
	bl	__ZN3msg7messageINSt3__17variantIJNS1_9monostateEdiNS1_12basic_stringIcNS1_11char_traitsIcEENS1_9allocatorIcEEEEcN10playground12_GLOBAL__N_17arr_msgENS1_4pairIddEEEEEED1Ev
	b	LBB17_244
LBB17_215:
Ltmp589:
	b	LBB17_243
LBB17_216:
Ltmp576:
	mov	x19, x0
	add	x0, sp, #24
	bl	__ZN10playground12_GLOBAL__N_17arr_msgD1Ev
	add	x0, sp, #80
	bl	__ZNSt3__110shared_ptrINS_6vectorIiNS_9allocatorIiEEEEED1B8ne200100Ev
	b	LBB17_244
LBB17_217:
Ltmp560:
	mov	x19, x0
	b	LBB17_245
LBB17_218:
Ltmp547:
	mov	x19, x0
	b	LBB17_245
LBB17_219:
Ltmp534:
	mov	x19, x0
	b	LBB17_245
LBB17_220:
Ltmp521:
	mov	x19, x0
	b	LBB17_245
LBB17_221:
Ltmp599:
	b	LBB17_237
LBB17_222:
Ltmp586:
	b	LBB17_237
LBB17_223:
Ltmp596:
	b	LBB17_237
LBB17_224:
Ltmp573:
	b	LBB17_237
LBB17_225:
Ltmp583:
	b	LBB17_237
LBB17_226:
Ltmp557:
	b	LBB17_237
LBB17_227:
Ltmp570:
	b	LBB17_237
LBB17_228:
Ltmp544:
	b	LBB17_237
LBB17_229:
Ltmp554:
	b	LBB17_237
LBB17_230:
Ltmp531:
	b	LBB17_237
LBB17_231:
Ltmp541:
	b	LBB17_237
LBB17_232:
Ltmp518:
	b	LBB17_237
LBB17_233:
Ltmp528:
	b	LBB17_237
LBB17_234:
Ltmp515:
	b	LBB17_237
LBB17_235:
Ltmp622:
	b	LBB17_237
LBB17_236:
Ltmp508:
LBB17_237:
	mov	x19, x0
	cbz	w1, LBB17_246
; %bb.238:
	mov	x0, x19
	bl	___clang_call_terminate
LBB17_239:
Ltmp610:
	b	LBB17_243
LBB17_240:
Ltmp613:
	b	LBB17_243
LBB17_241:
Ltmp616:
	b	LBB17_243
LBB17_242:
Ltmp619:
LBB17_243:
	mov	x19, x0
LBB17_244:
	add	x0, sp, #96
	bl	__ZNSt3__110shared_ptrINS_6vectorIiNS_9allocatorIiEEEEED1B8ne200100Ev
LBB17_245:
	add	x0, sp, #112
	bl	__ZNSt3__16vectorIN3msg7messageINS_7variantIJNS_9monostateEdiNS_12basic_stringIcNS_11char_traitsIcEENS_9allocatorIcEEEEcN10playground12_GLOBAL__N_17arr_msgENS_4pairIddEEEEEEENS8_ISH_EEED1B8ne200100Ev
LBB17_246:
	mov	x0, x19
	bl	__Unwind_Resume
	.loh AdrpLdrGotLdr	Lloh213, Lloh214, Lloh215
	.loh AdrpAdd	Lloh216, Lloh217
	.loh AdrpAdd	Lloh218, Lloh219
	.loh AdrpAdd	Lloh220, Lloh221
	.loh AdrpAdd	Lloh222, Lloh223
	.loh AdrpAdd	Lloh224, Lloh225
	.loh AdrpAdd	Lloh226, Lloh227
	.loh AdrpAdd	Lloh228, Lloh229
	.loh AdrpAdd	Lloh230, Lloh231
	.loh AdrpAdd	Lloh232, Lloh233
	.loh AdrpAdd	Lloh234, Lloh235
	.loh AdrpAdd	Lloh236, Lloh237
	.loh AdrpLdr	Lloh238, Lloh239
	.loh AdrpAdd	Lloh240, Lloh241
	.loh AdrpAdd	Lloh242, Lloh243
	.loh AdrpLdr	Lloh244, Lloh245
	.loh AdrpAdd	Lloh246, Lloh247
	.loh AdrpAdd	Lloh248, Lloh249
	.loh AdrpAdd	Lloh250, Lloh251
	.loh AdrpAdd	Lloh252, Lloh253
	.loh AdrpAdd	Lloh254, Lloh255
	.loh AdrpAdd	Lloh256, Lloh257
	.loh AdrpAdd	Lloh258, Lloh259
	.loh AdrpLdrGotLdr	Lloh260, Lloh261, Lloh262
Lfunc_end13:
	.cfi_endproc
	.section	__TEXT,__gcc_except_tab
	.p2align	2, 0x0
GCC_except_table17:
Lexception13:
	.byte	255                             ; @LPStart Encoding = omit
	.byte	155                             ; @TType Encoding = indirect pcrel sdata4
	.uleb128 Lttbase8-Lttbaseref8
Lttbaseref8:
	.byte	1                               ; Call site Encoding = uleb128
	.uleb128 Lcst_end13-Lcst_begin13
Lcst_begin13:
	.uleb128 Ltmp500-Lfunc_begin13          ; >> Call Site 1 <<
	.uleb128 Ltmp501-Ltmp500                ;   Call between Ltmp500 and Ltmp501
	.uleb128 Ltmp502-Lfunc_begin13          ;     jumps to Ltmp502
	.byte	0                               ;   On action: cleanup
	.uleb128 Ltmp503-Lfunc_begin13          ; >> Call Site 2 <<
	.uleb128 Ltmp504-Ltmp503                ;   Call between Ltmp503 and Ltmp504
	.uleb128 Ltmp505-Lfunc_begin13          ;     jumps to Ltmp505
	.byte	0                               ;   On action: cleanup
	.uleb128 Ltmp506-Lfunc_begin13          ; >> Call Site 3 <<
	.uleb128 Ltmp507-Ltmp506                ;   Call between Ltmp506 and Ltmp507
	.uleb128 Ltmp508-Lfunc_begin13          ;     jumps to Ltmp508
	.byte	5                               ;   On action: 3
	.uleb128 Ltmp509-Lfunc_begin13          ; >> Call Site 4 <<
	.uleb128 Ltmp510-Ltmp509                ;   Call between Ltmp509 and Ltmp510
	.uleb128 Ltmp521-Lfunc_begin13          ;     jumps to Ltmp521
	.byte	0                               ;   On action: cleanup
	.uleb128 Ltmp513-Lfunc_begin13          ; >> Call Site 5 <<
	.uleb128 Ltmp514-Ltmp513                ;   Call between Ltmp513 and Ltmp514
	.uleb128 Ltmp515-Lfunc_begin13          ;     jumps to Ltmp515
	.byte	5                               ;   On action: 3
	.uleb128 Ltmp516-Lfunc_begin13          ; >> Call Site 6 <<
	.uleb128 Ltmp517-Ltmp516                ;   Call between Ltmp516 and Ltmp517
	.uleb128 Ltmp518-Lfunc_begin13          ;     jumps to Ltmp518
	.byte	5                               ;   On action: 3
	.uleb128 Ltmp522-Lfunc_begin13          ; >> Call Site 7 <<
	.uleb128 Ltmp523-Ltmp522                ;   Call between Ltmp522 and Ltmp523
	.uleb128 Ltmp534-Lfunc_begin13          ;     jumps to Ltmp534
	.byte	0                               ;   On action: cleanup
	.uleb128 Ltmp526-Lfunc_begin13          ; >> Call Site 8 <<
	.uleb128 Ltmp527-Ltmp526                ;   Call between Ltmp526 and Ltmp527
	.uleb128 Ltmp528-Lfunc_begin13          ;     jumps to Ltmp528
	.byte	5                               ;   On action: 3
	.uleb128 Ltmp529-Lfunc_begin13          ; >> Call Site 9 <<
	.uleb128 Ltmp530-Ltmp529                ;   Call between Ltmp529 and Ltmp530
	.uleb128 Ltmp531-Lfunc_begin13          ;     jumps to Ltmp531
	.byte	5                               ;   On action: 3
	.uleb128 Ltmp535-Lfunc_begin13          ; >> Call Site 10 <<
	.uleb128 Ltmp536-Ltmp535                ;   Call between Ltmp535 and Ltmp536
	.uleb128 Ltmp547-Lfunc_begin13          ;     jumps to Ltmp547
	.byte	0                               ;   On action: cleanup
	.uleb128 Ltmp539-Lfunc_begin13          ; >> Call Site 11 <<
	.uleb128 Ltmp540-Ltmp539                ;   Call between Ltmp539 and Ltmp540
	.uleb128 Ltmp541-Lfunc_begin13          ;     jumps to Ltmp541
	.byte	5                               ;   On action: 3
	.uleb128 Ltmp542-Lfunc_begin13          ; >> Call Site 12 <<
	.uleb128 Ltmp543-Ltmp542                ;   Call between Ltmp542 and Ltmp543
	.uleb128 Ltmp544-Lfunc_begin13          ;     jumps to Ltmp544
	.byte	5                               ;   On action: 3
	.uleb128 Ltmp548-Lfunc_begin13          ; >> Call Site 13 <<
	.uleb128 Ltmp549-Ltmp548                ;   Call between Ltmp548 and Ltmp549
	.uleb128 Ltmp560-Lfunc_begin13          ;     jumps to Ltmp560
	.byte	0                               ;   On action: cleanup
	.uleb128 Ltmp552-Lfunc_begin13          ; >> Call Site 14 <<
	.uleb128 Ltmp553-Ltmp552                ;   Call between Ltmp552 and Ltmp553
	.uleb128 Ltmp554-Lfunc_begin13          ;     jumps to Ltmp554
	.byte	5                               ;   On action: 3
	.uleb128 Ltmp555-Lfunc_begin13          ; >> Call Site 15 <<
	.uleb128 Ltmp556-Ltmp555                ;   Call between Ltmp555 and Ltmp556
	.uleb128 Ltmp557-Lfunc_begin13          ;     jumps to Ltmp557
	.byte	5                               ;   On action: 3
	.uleb128 Ltmp561-Lfunc_begin13          ; >> Call Site 16 <<
	.uleb128 Ltmp562-Ltmp561                ;   Call between Ltmp561 and Ltmp562
	.uleb128 Ltmp563-Lfunc_begin13          ;     jumps to Ltmp563
	.byte	0                               ;   On action: cleanup
	.uleb128 Ltmp564-Lfunc_begin13          ; >> Call Site 17 <<
	.uleb128 Ltmp565-Ltmp564                ;   Call between Ltmp564 and Ltmp565
	.uleb128 Ltmp576-Lfunc_begin13          ;     jumps to Ltmp576
	.byte	0                               ;   On action: cleanup
	.uleb128 Ltmp568-Lfunc_begin13          ; >> Call Site 18 <<
	.uleb128 Ltmp569-Ltmp568                ;   Call between Ltmp568 and Ltmp569
	.uleb128 Ltmp570-Lfunc_begin13          ;     jumps to Ltmp570
	.byte	5                               ;   On action: 3
	.uleb128 Ltmp571-Lfunc_begin13          ; >> Call Site 19 <<
	.uleb128 Ltmp572-Ltmp571                ;   Call between Ltmp571 and Ltmp572
	.uleb128 Ltmp573-Lfunc_begin13          ;     jumps to Ltmp573
	.byte	5                               ;   On action: 3
	.uleb128 Ltmp577-Lfunc_begin13          ; >> Call Site 20 <<
	.uleb128 Ltmp578-Ltmp577                ;   Call between Ltmp577 and Ltmp578
	.uleb128 Ltmp589-Lfunc_begin13          ;     jumps to Ltmp589
	.byte	0                               ;   On action: cleanup
	.uleb128 Ltmp581-Lfunc_begin13          ; >> Call Site 21 <<
	.uleb128 Ltmp582-Ltmp581                ;   Call between Ltmp581 and Ltmp582
	.uleb128 Ltmp583-Lfunc_begin13          ;     jumps to Ltmp583
	.byte	5                               ;   On action: 3
	.uleb128 Ltmp584-Lfunc_begin13          ; >> Call Site 22 <<
	.uleb128 Ltmp585-Ltmp584                ;   Call between Ltmp584 and Ltmp585
	.uleb128 Ltmp586-Lfunc_begin13          ;     jumps to Ltmp586
	.byte	5                               ;   On action: 3
	.uleb128 Ltmp590-Lfunc_begin13          ; >> Call Site 23 <<
	.uleb128 Ltmp591-Ltmp590                ;   Call between Ltmp590 and Ltmp591
	.uleb128 Ltmp602-Lfunc_begin13          ;     jumps to Ltmp602
	.byte	0                               ;   On action: cleanup
	.uleb128 Ltmp594-Lfunc_begin13          ; >> Call Site 24 <<
	.uleb128 Ltmp595-Ltmp594                ;   Call between Ltmp594 and Ltmp595
	.uleb128 Ltmp596-Lfunc_begin13          ;     jumps to Ltmp596
	.byte	5                               ;   On action: 3
	.uleb128 Ltmp597-Lfunc_begin13          ; >> Call Site 25 <<
	.uleb128 Ltmp598-Ltmp597                ;   Call between Ltmp597 and Ltmp598
	.uleb128 Ltmp599-Lfunc_begin13          ;     jumps to Ltmp599
	.byte	5                               ;   On action: 3
	.uleb128 Ltmp603-Lfunc_begin13          ; >> Call Site 26 <<
	.uleb128 Ltmp604-Ltmp603                ;   Call between Ltmp603 and Ltmp604
	.uleb128 Ltmp605-Lfunc_begin13          ;     jumps to Ltmp605
	.byte	5                               ;   On action: 3
	.uleb128 Ltmp606-Lfunc_begin13          ; >> Call Site 27 <<
	.uleb128 Ltmp607-Ltmp606                ;   Call between Ltmp606 and Ltmp607
	.uleb128 Ltmp619-Lfunc_begin13          ;     jumps to Ltmp619
	.byte	0                               ;   On action: cleanup
	.uleb128 Ltmp608-Lfunc_begin13          ; >> Call Site 28 <<
	.uleb128 Ltmp609-Ltmp608                ;   Call between Ltmp608 and Ltmp609
	.uleb128 Ltmp610-Lfunc_begin13          ;     jumps to Ltmp610
	.byte	0                               ;   On action: cleanup
	.uleb128 Ltmp614-Lfunc_begin13          ; >> Call Site 29 <<
	.uleb128 Ltmp615-Ltmp614                ;   Call between Ltmp614 and Ltmp615
	.uleb128 Ltmp616-Lfunc_begin13          ;     jumps to Ltmp616
	.byte	0                               ;   On action: cleanup
	.uleb128 Ltmp620-Lfunc_begin13          ; >> Call Site 30 <<
	.uleb128 Ltmp621-Ltmp620                ;   Call between Ltmp620 and Ltmp621
	.uleb128 Ltmp622-Lfunc_begin13          ;     jumps to Ltmp622
	.byte	5                               ;   On action: 3
	.uleb128 Ltmp621-Lfunc_begin13          ; >> Call Site 31 <<
	.uleb128 Ltmp617-Ltmp621                ;   Call between Ltmp621 and Ltmp617
	.byte	0                               ;     has no landing pad
	.byte	0                               ;   On action: cleanup
	.uleb128 Ltmp617-Lfunc_begin13          ; >> Call Site 32 <<
	.uleb128 Ltmp618-Ltmp617                ;   Call between Ltmp617 and Ltmp618
	.uleb128 Ltmp619-Lfunc_begin13          ;     jumps to Ltmp619
	.byte	0                               ;   On action: cleanup
	.uleb128 Ltmp611-Lfunc_begin13          ; >> Call Site 33 <<
	.uleb128 Ltmp612-Ltmp611                ;   Call between Ltmp611 and Ltmp612
	.uleb128 Ltmp613-Lfunc_begin13          ;     jumps to Ltmp613
	.byte	0                               ;   On action: cleanup
	.uleb128 Ltmp612-Lfunc_begin13          ; >> Call Site 34 <<
	.uleb128 Ltmp519-Ltmp612                ;   Call between Ltmp612 and Ltmp519
	.byte	0                               ;     has no landing pad
	.byte	0                               ;   On action: cleanup
	.uleb128 Ltmp519-Lfunc_begin13          ; >> Call Site 35 <<
	.uleb128 Ltmp520-Ltmp519                ;   Call between Ltmp519 and Ltmp520
	.uleb128 Ltmp521-Lfunc_begin13          ;     jumps to Ltmp521
	.byte	0                               ;   On action: cleanup
	.uleb128 Ltmp532-Lfunc_begin13          ; >> Call Site 36 <<
	.uleb128 Ltmp533-Ltmp532                ;   Call between Ltmp532 and Ltmp533
	.uleb128 Ltmp534-Lfunc_begin13          ;     jumps to Ltmp534
	.byte	0                               ;   On action: cleanup
	.uleb128 Ltmp545-Lfunc_begin13          ; >> Call Site 37 <<
	.uleb128 Ltmp546-Ltmp545                ;   Call between Ltmp545 and Ltmp546
	.uleb128 Ltmp547-Lfunc_begin13          ;     jumps to Ltmp547
	.byte	0                               ;   On action: cleanup
	.uleb128 Ltmp558-Lfunc_begin13          ; >> Call Site 38 <<
	.uleb128 Ltmp559-Ltmp558                ;   Call between Ltmp558 and Ltmp559
	.uleb128 Ltmp560-Lfunc_begin13          ;     jumps to Ltmp560
	.byte	0                               ;   On action: cleanup
	.uleb128 Ltmp574-Lfunc_begin13          ; >> Call Site 39 <<
	.uleb128 Ltmp575-Ltmp574                ;   Call between Ltmp574 and Ltmp575
	.uleb128 Ltmp576-Lfunc_begin13          ;     jumps to Ltmp576
	.byte	0                               ;   On action: cleanup
	.uleb128 Ltmp587-Lfunc_begin13          ; >> Call Site 40 <<
	.uleb128 Ltmp588-Ltmp587                ;   Call between Ltmp587 and Ltmp588
	.uleb128 Ltmp589-Lfunc_begin13          ;     jumps to Ltmp589
	.byte	0                               ;   On action: cleanup
	.uleb128 Ltmp600-Lfunc_begin13          ; >> Call Site 41 <<
	.uleb128 Ltmp601-Ltmp600                ;   Call between Ltmp600 and Ltmp601
	.uleb128 Ltmp602-Lfunc_begin13          ;     jumps to Ltmp602
	.byte	0                               ;   On action: cleanup
	.uleb128 Ltmp511-Lfunc_begin13          ; >> Call Site 42 <<
	.uleb128 Ltmp512-Ltmp511                ;   Call between Ltmp511 and Ltmp512
	.uleb128 Ltmp521-Lfunc_begin13          ;     jumps to Ltmp521
	.byte	0                               ;   On action: cleanup
	.uleb128 Ltmp524-Lfunc_begin13          ; >> Call Site 43 <<
	.uleb128 Ltmp525-Ltmp524                ;   Call between Ltmp524 and Ltmp525
	.uleb128 Ltmp534-Lfunc_begin13          ;     jumps to Ltmp534
	.byte	0                               ;   On action: cleanup
	.uleb128 Ltmp537-Lfunc_begin13          ; >> Call Site 44 <<
	.uleb128 Ltmp538-Ltmp537                ;   Call between Ltmp537 and Ltmp538
	.uleb128 Ltmp547-Lfunc_begin13          ;     jumps to Ltmp547
	.byte	0                               ;   On action: cleanup
	.uleb128 Ltmp550-Lfunc_begin13          ; >> Call Site 45 <<
	.uleb128 Ltmp551-Ltmp550                ;   Call between Ltmp550 and Ltmp551
	.uleb128 Ltmp560-Lfunc_begin13          ;     jumps to Ltmp560
	.byte	0                               ;   On action: cleanup
	.uleb128 Ltmp566-Lfunc_begin13          ; >> Call Site 46 <<
	.uleb128 Ltmp567-Ltmp566                ;   Call between Ltmp566 and Ltmp567
	.uleb128 Ltmp576-Lfunc_begin13          ;     jumps to Ltmp576
	.byte	0                               ;   On action: cleanup
	.uleb128 Ltmp579-Lfunc_begin13          ; >> Call Site 47 <<
	.uleb128 Ltmp580-Ltmp579                ;   Call between Ltmp579 and Ltmp580
	.uleb128 Ltmp589-Lfunc_begin13          ;     jumps to Ltmp589
	.byte	0                               ;   On action: cleanup
	.uleb128 Ltmp592-Lfunc_begin13          ; >> Call Site 48 <<
	.uleb128 Ltmp593-Ltmp592                ;   Call between Ltmp592 and Ltmp593
	.uleb128 Ltmp602-Lfunc_begin13          ;     jumps to Ltmp602
	.byte	0                               ;   On action: cleanup
	.uleb128 Ltmp593-Lfunc_begin13          ; >> Call Site 49 <<
	.uleb128 Lfunc_end13-Ltmp593            ;   Call between Ltmp593 and Lfunc_end13
	.byte	0                               ;     has no landing pad
	.byte	0                               ;   On action: cleanup
Lcst_end13:
	.byte	0                               ; >> Action Record 1 <<
                                        ;   Cleanup
	.byte	0                               ;   No further actions
	.byte	0                               ; >> Action Record 2 <<
                                        ;   Cleanup
	.byte	125                             ;   Continue to action 1
	.byte	1                               ; >> Action Record 3 <<
                                        ;   Catch TypeInfo 1
	.byte	125                             ;   Continue to action 2
	.p2align	2, 0x0
                                        ; >> Catch TypeInfos <<
	.long	0                               ; TypeInfo 1
Lttbase8:
	.p2align	2, 0x0
                                        ; -- End function
	.section	__TEXT,__text,regular,pure_instructions
	.p2align	2                               ; -- Begin function _ZN10playground12_GLOBAL__N_17arr_msgD1Ev
__ZN10playground12_GLOBAL__N_17arr_msgD1Ev: ; @_ZN10playground12_GLOBAL__N_17arr_msgD1Ev
	.cfi_startproc
; %bb.0:
	stp	x20, x19, [sp, #-32]!           ; 16-byte Folded Spill
	stp	x29, x30, [sp, #16]             ; 16-byte Folded Spill
	add	x29, sp, #16
	.cfi_def_cfa w29, 16
	.cfi_offset w30, -8
	.cfi_offset w29, -16
	.cfi_offset w19, -24
	.cfi_offset w20, -32
	ldr	x19, [x0, #8]
	cbz	x19, LBB18_2
; %bb.1:
	add	x8, x19, #8
	mov	x9, #-1                         ; =0xffffffffffffffff
	ldaddal	x9, x8, [x8]
	cbz	x8, LBB18_3
LBB18_2:
	ldp	x29, x30, [sp, #16]             ; 16-byte Folded Reload
	ldp	x20, x19, [sp], #32             ; 16-byte Folded Reload
	ret
LBB18_3:
	ldr	x8, [x19]
	ldr	x8, [x8, #16]
	mov	x20, x0
	mov	x0, x19
	blr	x8
	mov	x0, x19
	bl	__ZNSt3__119__shared_weak_count14__release_weakEv
	mov	x0, x20
	ldp	x29, x30, [sp, #16]             ; 16-byte Folded Reload
	ldp	x20, x19, [sp], #32             ; 16-byte Folded Reload
	ret
	.cfi_endproc
                                        ; -- End function
	.private_extern	__ZNSt3__110shared_ptrINS_6vectorIiNS_9allocatorIiEEEEED1B8ne200100Ev ; -- Begin function _ZNSt3__110shared_ptrINS_6vectorIiNS_9allocatorIiEEEEED1B8ne200100Ev
	.globl	__ZNSt3__110shared_ptrINS_6vectorIiNS_9allocatorIiEEEEED1B8ne200100Ev
	.weak_def_can_be_hidden	__ZNSt3__110shared_ptrINS_6vectorIiNS_9allocatorIiEEEEED1B8ne200100Ev
	.p2align	2
__ZNSt3__110shared_ptrINS_6vectorIiNS_9allocatorIiEEEEED1B8ne200100Ev: ; @_ZNSt3__110shared_ptrINS_6vectorIiNS_9allocatorIiEEEEED1B8ne200100Ev
	.cfi_startproc
; %bb.0:
	stp	x20, x19, [sp, #-32]!           ; 16-byte Folded Spill
	stp	x29, x30, [sp, #16]             ; 16-byte Folded Spill
	add	x29, sp, #16
	.cfi_def_cfa w29, 16
	.cfi_offset w30, -8
	.cfi_offset w29, -16
	.cfi_offset w19, -24
	.cfi_offset w20, -32
	ldr	x19, [x0, #8]
